

Microchip MPLAB XC8 Assembler V2.10 build 88905656 
                                                                                               Mon Mar 30 14:33:07 2020

Microchip MPLAB XC8 C Compiler v2.10 (Free license) build 20190730164152 Og1 
     1                           	processor	18F47K40
     2                           	fnconf	rparam,??,?,0
     3                           	opt	pw 120
     4                           	opt	flic
     5                           	psect	idataBANK0,global,class=CODE,delta=1,noexec
     6                           	psect	cinit,global,reloc=2,class=CODE,delta=1
     7                           	psect	bssBANK0,global,class=BANK0,space=1,delta=1,lowdata,noexec
     8                           	psect	dataBANK0,global,class=BANK0,space=1,delta=1,lowdata,noexec
     9                           	psect	cstackBANK0,global,class=BANK0,space=1,delta=1,noexec
    10                           	psect	cstackCOMRAM,global,class=COMRAM,space=1,delta=1,noexec
    11                           	psect	text0,global,reloc=2,class=CODE,delta=1
    12                           	psect	text1,global,reloc=2,class=CODE,delta=1
    13                           	psect	text2,global,reloc=2,class=CODE,delta=1
    14                           	psect	text3,global,reloc=2,class=CODE,delta=1
    15                           	psect	text4,global,reloc=2,class=CODE,delta=1
    16                           	psect	text5,global,reloc=2,class=CODE,delta=1,group=1
    17                           	psect	text6,global,reloc=2,class=CODE,delta=1,group=1
    18                           	psect	text7,global,reloc=2,class=CODE,delta=1,group=1
    19                           	psect	text8,global,reloc=2,class=CODE,delta=1,group=1
    20                           	psect	text9,global,reloc=2,class=CODE,delta=1
    21                           	psect	text10,global,reloc=2,class=CODE,delta=1
    22                           	psect	text11,global,reloc=2,class=CODE,delta=1,group=2
    23                           	psect	text12,global,reloc=2,class=CODE,delta=1,group=1
    24                           	psect	text13,global,reloc=2,class=CODE,delta=1,group=1
    25                           	psect	text14,global,reloc=2,class=CODE,delta=1,group=1
    26                           	psect	text15,global,reloc=2,class=CODE,delta=1,group=1
    27                           	psect	text16,global,reloc=2,class=CODE,delta=1,group=1
    28                           	psect	text17,global,reloc=2,class=CODE,delta=1,group=1
    29                           	psect	text18,global,reloc=2,class=CODE,delta=1,group=1
    30                           	psect	text19,global,reloc=2,class=CODE,delta=1,group=1
    31                           	psect	intsave_regs,global,class=BIGRAM,space=1,delta=1,noexec
    32                           	psect	rparam,global,class=COMRAM,space=1,delta=1,noexec
    33  0000                     
    34                           ; Version 2.10
    35                           ; Generated 31/07/2019 GMT
    36                           ; 
    37                           ; Copyright © 2019, Microchip Technology Inc. and its subsidiaries ("Microchip")
    38                           ; All rights reserved.
    39                           ; 
    40                           ; This software is developed by Microchip Technology Inc. and its subsidiaries ("Microch
      +                          ip").
    41                           ; 
    42                           ; Redistribution and use in source and binary forms, with or without modification, are
    43                           ; permitted provided that the following conditions are met:
    44                           ; 
    45                           ;     1. Redistributions of source code must retain the above copyright notice, this lis
      +                          t of
    46                           ;        conditions and the following disclaimer.
    47                           ; 
    48                           ;     2. Redistributions in binary form must reproduce the above copyright notice, this 
      +                          list
    49                           ;        of conditions and the following disclaimer in the documentation and/or other
    50                           ;        materials provided with the distribution.
    51                           ; 
    52                           ;     3. Microchip's name may not be used to endorse or promote products derived from th
      +                          is
    53                           ;        software without specific prior written permission.
    54                           ; 
    55                           ; THIS SOFTWARE IS PROVIDED BY MICROCHIP "AS IS" AND ANY EXPRESS OR IMPLIED WARRANTIES,
    56                           ; INCLUDING, BUT NOT LIMITED TO, THE IMPLIED WARRANTIES OF MERCHANTABILITY AND FITNESS F
      +                          OR
    57                           ; PURPOSE ARE DISCLAIMED.  IN NO EVENT SHALL MICROCHIP BE LIABLE FOR ANY DIRECT, INDIREC
      +                          T,
    58                           ; INCIDENTAL, SPECIAL, EXEMPLARY, OR CONSEQUENTIAL DAMAGES (INCLUDING BUT NOT LIMITED TO
    59                           ; PROCUREMENT OF SUBSTITUTE GOODS OR SERVICES; LOSS OF USE, DATA OR PROFITS; OR BUSINESS
    60                           ; INTERRUPTION) HOWSOEVER CAUSED AND ON ANY THEORY OF LIABILITY, WHETHER IN CONTRACT, ST
      +                          RICT
    61                           ; LIABILITY, OR TORT (INCLUDING NEGLIGENCE OR OTHERWISE) ARISING IN ANY WAY OUT OF THE U
      +                          SE OF
    62                           ; THIS SOFTWARE, EVEN IF ADVISED OF THE POSSIBILITY OF SUCH DAMAGE.
    63                           ; 
    64                           ; 
    65                           ; Code-generator required, PIC18F47K40 Definitions
    66                           ; 
    67                           ; SFR Addresses
    68  0000                     
    69                           	psect	idataBANK0
    70  01DADC                     __pidataBANK0:
    71                           	opt callstack 0
    72                           
    73                           ;initializer for _stepf
    74  01DADC  0001               	dw	1
    75                           
    76                           ;initializer for _step
    77  01DADE  0001               	dw	1
    78  0000                     _PIR6bits	set	3792
    79  0000                     _CCP1PPS	set	3759
    80  0000                     _CCP1IE	set	30272
    81  0000                     _TMR1IF	set	30320
    82  0000                     _ANSELC	set	3873
    83  0000                     _ANSELA	set	3857
    84  0000                     _ADRES	set	3939
    85  0000                     _CCPR1	set	4010
    86  0000                     _TMR1	set	4045
    87  0000                     _ADCON0bits	set	3936
    88  0000                     _ADCON0	set	3936
    89  0000                     _LATAbits	set	3971
    90  0000                     _TRISCbits	set	3978
    91  0000                     _TRISD	set	3979
    92  0000                     _TRISB	set	3977
    93  0000                     _PORTAbits	set	3981
    94  0000                     _TRISAbits	set	3976
    95  0000                     _CCP1CONbits	set	4012
    96  0000                     _TMR1CLKbits	set	4050
    97  0000                     _T1CONbits	set	4047
    98  0000                     _PORTD	set	3984
    99  0000                     _PORTB	set	3982
   100  0000                     _GIE	set	32663
   101  0000                     _PEIE	set	32662
   102  0000                     _TMR1ON	set	32376
   103  0000                     _T1CKPS1	set	32381
   104  0000                     _T1CKPS0	set	32380
   105                           
   106                           ; #config settings
   107  0000                     
   108                           	psect	cinit
   109  01DB10                     __pcinit:
   110                           	opt callstack 0
   111  01DB10                     start_initialization:
   112                           	opt callstack 0
   113  01DB10                     __initialization:
   114                           	opt callstack 0
   115                           
   116                           ; NVMREG Errata
   117  01DB10                     	if	3969
   118  01DB10  8E81               	bsf	129,7,c
   119  01DB12  9C81               	bcf	129,6,c
   120  01DB14                     	endif
   121                           
   122                           ; Initialize objects allocated to BANK0 (4 bytes)
   123                           ; load TBLPTR registers with __pidataBANK0
   124  01DB14  0EDC               	movlw	low __pidataBANK0
   125  01DB16  6EF6               	movwf	tblptrl,c
   126  01DB18  0EDA               	movlw	high __pidataBANK0
   127  01DB1A  6EF7               	movwf	tblptrh,c
   128  01DB1C  0E01               	movlw	low (__pidataBANK0 shr (0+16))
   129  01DB1E  6EF8               	movwf	tblptru,c
   130  01DB20  EE00  F0DC         	lfsr	0,__pdataBANK0
   131  01DB24  EE10 F004          	lfsr	1,4
   132  01DB28                     copy_data0:
   133  01DB28  0009               	tblrd		*+
   134  01DB2A  CFF5 FFEE          	movff	tablat,postinc0
   135  01DB2E  50E5               	movf	postdec1,w,c
   136  01DB30  50E1               	movf	fsr1l,w,c
   137  01DB32  E1FA               	bnz	copy_data0
   138                           
   139                           ; Clear objects allocated to BANK0 (32 bytes)
   140  01DB34  EE00  F0BC         	lfsr	0,__pbssBANK0
   141  01DB38  0E20               	movlw	32
   142  01DB3A                     clear_0:
   143  01DB3A  6AEE               	clrf	postinc0,c
   144  01DB3C  06E8               	decf	wreg,f,c
   145  01DB3E  E1FD               	bnz	clear_0
   146  01DB40                     end_of_initialization:
   147                           	opt callstack 0
   148  01DB40                     __end_of__initialization:
   149                           	opt callstack 0
   150  01DB40  0100               	movlb	0
   151  01DB42  EF86  F0F9         	goto	_main	;jump to C main() function
   152                           
   153                           	psect	bssBANK0
   154  0000BC                     __pbssBANK0:
   155                           	opt callstack 0
   156  0000BC                     _f3:
   157                           	opt callstack 0
   158  0000BC                     	ds	4
   159  0000C0                     _f2:
   160                           	opt callstack 0
   161  0000C0                     	ds	4
   162  0000C4                     _f:
   163                           	opt callstack 0
   164  0000C4                     	ds	4
   165  0000C8                     _currfreq:
   166                           	opt callstack 0
   167  0000C8                     	ds	4
   168  0000CC                     _currfuel:
   169                           	opt callstack 0
   170  0000CC                     	ds	4
   171  0000D0                     _value0:
   172                           	opt callstack 0
   173  0000D0                     	ds	4
   174  0000D4                     _check:
   175                           	opt callstack 0
   176  0000D4                     	ds	2
   177  0000D6                     _temp:
   178                           	opt callstack 0
   179  0000D6                     	ds	2
   180  0000D8                     _test:
   181                           	opt callstack 0
   182  0000D8                     	ds	2
   183  0000DA                     _freq:
   184                           	opt callstack 0
   185  0000DA                     	ds	2
   186                           
   187                           	psect	dataBANK0
   188  0000DC                     __pdataBANK0:
   189                           	opt callstack 0
   190  0000DC                     _stepf:
   191                           	opt callstack 0
   192  0000DC                     	ds	2
   193  0000DE                     _step:
   194                           	opt callstack 0
   195  0000DE                     	ds	2
   196                           
   197                           	psect	cstackBANK0
   198  000060                     __pcstackBANK0:
   199                           	opt callstack 0
   200  000060                     ___fladd@signs:
   201                           	opt callstack 0
   202                           
   203                           ; 1 bytes @ 0x0
   204  000060                     	ds	1
   205  000061                     ___fladd@aexp:
   206                           	opt callstack 0
   207                           
   208                           ; 1 bytes @ 0x1
   209  000061                     	ds	1
   210  000062                     ___fladd@bexp:
   211                           	opt callstack 0
   212                           
   213                           ; 1 bytes @ 0x2
   214  000062                     	ds	1
   215  000063                     ___fladd@grs:
   216                           	opt callstack 0
   217                           
   218                           ; 1 bytes @ 0x3
   219  000063                     	ds	1
   220  000064                     ?___flsub:
   221                           	opt callstack 0
   222  000064                     ?___fltol:
   223                           	opt callstack 0
   224  000064                     ___fltol@f1:
   225                           	opt callstack 0
   226  000064                     ___flsub@b:
   227                           	opt callstack 0
   228                           
   229                           ; 4 bytes @ 0x4
   230  000064                     	ds	4
   231  000068                     ??___fltol:
   232  000068                     ___flsub@a:
   233                           	opt callstack 0
   234                           
   235                           ; 4 bytes @ 0x8
   236  000068                     	ds	4
   237  00006C                     ___fltol@sign1:
   238                           	opt callstack 0
   239  00006C                     ___flge@ff1:
   240                           	opt callstack 0
   241                           
   242                           ; 4 bytes @ 0xC
   243  00006C                     	ds	1
   244  00006D                     ___fltol@exp1:
   245                           	opt callstack 0
   246                           
   247                           ; 1 bytes @ 0xD
   248  00006D                     	ds	1
   249  00006E                     ?___awmod:
   250                           	opt callstack 0
   251  00006E                     ?_ccpNum0:
   252                           	opt callstack 0
   253  00006E                     ___awmod@dividend:
   254                           	opt callstack 0
   255                           
   256                           ; 2 bytes @ 0xE
   257  00006E                     	ds	2
   258  000070                     ___awmod@divisor:
   259                           	opt callstack 0
   260  000070                     ___flge@ff2:
   261                           	opt callstack 0
   262                           
   263                           ; 4 bytes @ 0x10
   264  000070                     	ds	2
   265  000072                     ___awmod@counter:
   266                           	opt callstack 0
   267  000072                     ccpNum0@period:
   268                           	opt callstack 0
   269                           
   270                           ; 4 bytes @ 0x12
   271  000072                     	ds	1
   272  000073                     ___awmod@sign:
   273                           	opt callstack 0
   274                           
   275                           ; 1 bytes @ 0x13
   276  000073                     	ds	1
   277  000074                     ??___flge:
   278                           
   279                           ; 1 bytes @ 0x14
   280  000074                     	ds	2
   281  000076                     _ccpNum0$1120:
   282                           	opt callstack 0
   283                           
   284                           ; 4 bytes @ 0x16
   285  000076                     	ds	4
   286  00007A                     ccpNum0@q:
   287                           	opt callstack 0
   288                           
   289                           ; 2 bytes @ 0x1A
   290  00007A                     	ds	2
   291  00007C                     ??_main:
   292                           
   293                           ; 1 bytes @ 0x1C
   294  00007C                     	ds	20
   295  000090                     _main$1121:
   296                           	opt callstack 0
   297                           
   298                           ; 4 bytes @ 0x30
   299  000090                     	ds	4
   300  000094                     _main$1122:
   301                           	opt callstack 0
   302                           
   303                           ; 4 bytes @ 0x34
   304  000094                     	ds	4
   305  000098                     main@t_402:
   306                           	opt callstack 0
   307                           
   308                           ; 2 bytes @ 0x38
   309  000098                     	ds	2
   310  00009A                     main@t_404:
   311                           	opt callstack 0
   312                           
   313                           ; 2 bytes @ 0x3A
   314  00009A                     	ds	2
   315  00009C                     main@t_405:
   316                           	opt callstack 0
   317                           
   318                           ; 2 bytes @ 0x3C
   319  00009C                     	ds	2
   320  00009E                     main@t_407:
   321                           	opt callstack 0
   322                           
   323                           ; 2 bytes @ 0x3E
   324  00009E                     	ds	2
   325  0000A0                     main@t_418:
   326                           	opt callstack 0
   327                           
   328                           ; 2 bytes @ 0x40
   329  0000A0                     	ds	2
   330  0000A2                     main@t_420:
   331                           	opt callstack 0
   332                           
   333                           ; 2 bytes @ 0x42
   334  0000A2                     	ds	2
   335  0000A4                     main@t_421:
   336                           	opt callstack 0
   337                           
   338                           ; 2 bytes @ 0x44
   339  0000A4                     	ds	2
   340  0000A6                     main@t_423:
   341                           	opt callstack 0
   342                           
   343                           ; 2 bytes @ 0x46
   344  0000A6                     	ds	2
   345  0000A8                     main@dist:
   346                           	opt callstack 0
   347                           
   348                           ; 2 bytes @ 0x48
   349  0000A8                     	ds	2
   350  0000AA                     main@dist2:
   351                           	opt callstack 0
   352                           
   353                           ; 2 bytes @ 0x4A
   354  0000AA                     	ds	2
   355  0000AC                     main@t:
   356                           	opt callstack 0
   357                           
   358                           ; 2 bytes @ 0x4C
   359  0000AC                     	ds	2
   360  0000AE                     main@t_398:
   361                           	opt callstack 0
   362                           
   363                           ; 2 bytes @ 0x4E
   364  0000AE                     	ds	2
   365  0000B0                     main@w:
   366                           	opt callstack 0
   367                           
   368                           ; 2 bytes @ 0x50
   369  0000B0                     	ds	2
   370  0000B2                     main@t_403:
   371                           	opt callstack 0
   372                           
   373                           ; 2 bytes @ 0x52
   374  0000B2                     	ds	2
   375  0000B4                     main@t_406:
   376                           	opt callstack 0
   377                           
   378                           ; 2 bytes @ 0x54
   379  0000B4                     	ds	2
   380  0000B6                     main@t_419:
   381                           	opt callstack 0
   382                           
   383                           ; 2 bytes @ 0x56
   384  0000B6                     	ds	2
   385  0000B8                     main@t_422:
   386                           	opt callstack 0
   387                           
   388                           ; 2 bytes @ 0x58
   389  0000B8                     	ds	2
   390  0000BA                     main@n:
   391                           	opt callstack 0
   392                           
   393                           ; 2 bytes @ 0x5A
   394  0000BA                     	ds	2
   395                           
   396                           	psect	cstackCOMRAM
   397  000001                     __pcstackCOMRAM:
   398                           	opt callstack 0
   399  000001                     ?_abs:
   400                           	opt callstack 0
   401  000001                     ?_adcNum0:
   402                           	opt callstack 0
   403  000001                     ?___lldiv:
   404                           	opt callstack 0
   405  000001                     steptakeR@dir:
   406                           	opt callstack 0
   407  000001                     steptakeL@dir:
   408                           	opt callstack 0
   409  000001                     abs@a:
   410                           	opt callstack 0
   411  000001                     ___lldiv@dividend:
   412                           	opt callstack 0
   413                           
   414                           ; 4 bytes @ 0x0
   415  000001                     	ds	2
   416  000003                     ??_abs:
   417  000003                     ??_steptakeR:
   418  000003                     ??_steptakeL:
   419                           
   420                           ; 1 bytes @ 0x2
   421  000003                     	ds	2
   422  000005                     ??_adcNum0:
   423  000005                     ?___wmul:
   424                           	opt callstack 0
   425  000005                     ___wmul@multiplier:
   426                           	opt callstack 0
   427  000005                     ___lldiv@divisor:
   428                           	opt callstack 0
   429                           
   430                           ; 4 bytes @ 0x4
   431  000005                     	ds	2
   432  000007                     ___wmul@multiplicand:
   433                           	opt callstack 0
   434                           
   435                           ; 2 bytes @ 0x6
   436  000007                     	ds	2
   437  000009                     ___wmul@product:
   438                           	opt callstack 0
   439  000009                     ___lldiv@quotient:
   440                           	opt callstack 0
   441                           
   442                           ; 4 bytes @ 0x8
   443  000009                     	ds	2
   444  00000B                     ?___awdiv:
   445                           	opt callstack 0
   446  00000B                     ___awdiv@dividend:
   447                           	opt callstack 0
   448                           
   449                           ; 2 bytes @ 0xA
   450  00000B                     	ds	2
   451  00000D                     ___lldiv@counter:
   452                           	opt callstack 0
   453  00000D                     ___awdiv@divisor:
   454                           	opt callstack 0
   455                           
   456                           ; 2 bytes @ 0xC
   457  00000D                     	ds	1
   458  00000E                     ?___llmod:
   459                           	opt callstack 0
   460  00000E                     ___llmod@dividend:
   461                           	opt callstack 0
   462                           
   463                           ; 4 bytes @ 0xD
   464  00000E                     	ds	1
   465  00000F                     ___awdiv@counter:
   466                           	opt callstack 0
   467                           
   468                           ; 1 bytes @ 0xE
   469  00000F                     	ds	1
   470  000010                     ___awdiv@sign:
   471                           	opt callstack 0
   472                           
   473                           ; 1 bytes @ 0xF
   474  000010                     	ds	1
   475  000011                     ___awdiv@quotient:
   476                           	opt callstack 0
   477                           
   478                           ; 2 bytes @ 0x10
   479  000011                     	ds	1
   480  000012                     ___llmod@divisor:
   481                           	opt callstack 0
   482                           
   483                           ; 4 bytes @ 0x11
   484  000012                     	ds	1
   485  000013                     ?___xxtofl:
   486                           	opt callstack 0
   487  000013                     ___xxtofl@val:
   488                           	opt callstack 0
   489                           
   490                           ; 4 bytes @ 0x12
   491  000013                     	ds	3
   492  000016                     ___llmod@counter:
   493                           	opt callstack 0
   494                           
   495                           ; 1 bytes @ 0x15
   496  000016                     	ds	1
   497  000017                     ??___xxtofl:
   498                           
   499                           ; 1 bytes @ 0x16
   500  000017                     	ds	4
   501  00001B                     ___xxtofl@sign:
   502                           	opt callstack 0
   503                           
   504                           ; 1 bytes @ 0x1A
   505  00001B                     	ds	1
   506  00001C                     ___xxtofl@exp:
   507                           	opt callstack 0
   508                           
   509                           ; 1 bytes @ 0x1B
   510  00001C                     	ds	1
   511  00001D                     ___xxtofl@arg:
   512                           	opt callstack 0
   513                           
   514                           ; 4 bytes @ 0x1C
   515  00001D                     	ds	4
   516  000021                     ?___flmul:
   517                           	opt callstack 0
   518  000021                     ___flmul@b:
   519                           	opt callstack 0
   520                           
   521                           ; 4 bytes @ 0x20
   522  000021                     	ds	4
   523  000025                     ___flmul@a:
   524                           	opt callstack 0
   525                           
   526                           ; 4 bytes @ 0x24
   527  000025                     	ds	4
   528  000029                     ??___flmul:
   529                           
   530                           ; 1 bytes @ 0x28
   531  000029                     	ds	4
   532  00002D                     ___flmul@sign:
   533                           	opt callstack 0
   534                           
   535                           ; 1 bytes @ 0x2C
   536  00002D                     	ds	1
   537  00002E                     ___flmul@grs:
   538                           	opt callstack 0
   539                           
   540                           ; 4 bytes @ 0x2D
   541  00002E                     	ds	4
   542  000032                     ___flmul@aexp:
   543                           	opt callstack 0
   544                           
   545                           ; 1 bytes @ 0x31
   546  000032                     	ds	1
   547  000033                     ___flmul@bexp:
   548                           	opt callstack 0
   549                           
   550                           ; 1 bytes @ 0x32
   551  000033                     	ds	1
   552  000034                     ___flmul@prod:
   553                           	opt callstack 0
   554                           
   555                           ; 4 bytes @ 0x33
   556  000034                     	ds	4
   557  000038                     ___flmul@temp:
   558                           	opt callstack 0
   559                           
   560                           ; 2 bytes @ 0x37
   561  000038                     	ds	2
   562  00003A                     ?___fldiv:
   563                           	opt callstack 0
   564  00003A                     ___fldiv@b:
   565                           	opt callstack 0
   566                           
   567                           ; 4 bytes @ 0x39
   568  00003A                     	ds	4
   569  00003E                     ___fldiv@a:
   570                           	opt callstack 0
   571                           
   572                           ; 4 bytes @ 0x3D
   573  00003E                     	ds	4
   574  000042                     ??___fldiv:
   575                           
   576                           ; 1 bytes @ 0x41
   577  000042                     	ds	4
   578  000046                     ___fldiv@rem:
   579                           	opt callstack 0
   580                           
   581                           ; 4 bytes @ 0x45
   582  000046                     	ds	4
   583  00004A                     ___fldiv@sign:
   584                           	opt callstack 0
   585                           
   586                           ; 1 bytes @ 0x49
   587  00004A                     	ds	1
   588  00004B                     ___fldiv@new_exp:
   589                           	opt callstack 0
   590                           
   591                           ; 2 bytes @ 0x4A
   592  00004B                     	ds	2
   593  00004D                     ___fldiv@grs:
   594                           	opt callstack 0
   595                           
   596                           ; 4 bytes @ 0x4C
   597  00004D                     	ds	4
   598  000051                     ___fldiv@bexp:
   599                           	opt callstack 0
   600                           
   601                           ; 1 bytes @ 0x50
   602  000051                     	ds	1
   603  000052                     ___fldiv@aexp:
   604                           	opt callstack 0
   605                           
   606                           ; 1 bytes @ 0x51
   607  000052                     	ds	1
   608  000053                     ?___fladd:
   609                           	opt callstack 0
   610  000053                     ___fladd@b:
   611                           	opt callstack 0
   612                           
   613                           ; 4 bytes @ 0x52
   614  000053                     	ds	4
   615  000057                     ___fladd@a:
   616                           	opt callstack 0
   617                           
   618                           ; 4 bytes @ 0x56
   619  000057                     	ds	4
   620  00005B                     ??___fladd:
   621                           
   622                           ; 1 bytes @ 0x5A
   623  00005B                     	ds	4
   624  00005F                     
   625                           ; 1 bytes @ 0x5E
   626 ;;
   627 ;;Main: autosize = 0, tempsize = 20, incstack = 0, save=0
   628 ;;
   629 ;; *************** function _main *****************
   630 ;; Defined at:
   631 ;;		line 242 in file "sm.c"
   632 ;; Parameters:    Size  Location     Type
   633 ;;		None
   634 ;; Auto vars:     Size  Location     Type
   635 ;;  t               2   62[BANK0 ] int 
   636 ;;  t               2   84[BANK0 ] int 
   637 ;;  t               2   58[BANK0 ] int 
   638 ;;  t               2   82[BANK0 ] int 
   639 ;;  t               2   70[BANK0 ] int 
   640 ;;  t               2   88[BANK0 ] int 
   641 ;;  t               2   66[BANK0 ] int 
   642 ;;  t               2   86[BANK0 ] int 
   643 ;;  t               2   60[BANK0 ] int 
   644 ;;  t               2   56[BANK0 ] int 
   645 ;;  t               2   68[BANK0 ] int 
   646 ;;  t               2   64[BANK0 ] int 
   647 ;;  dist            2   72[BANK0 ] int 
   648 ;;  dist2           2   74[BANK0 ] int 
   649 ;;  w               2   80[BANK0 ] int 
   650 ;;  n               2   90[BANK0 ] int 
   651 ;;  t               2   78[BANK0 ] int 
   652 ;;  t               2   76[BANK0 ] int 
   653 ;; Return value:  Size  Location     Type
   654 ;;                  1    wreg      void 
   655 ;; Registers used:
   656 ;;		wreg, status,2, status,0, prodl, prodh, cstack
   657 ;; Tracked objects:
   658 ;;		On entry : 0/0
   659 ;;		On exit  : 0/0
   660 ;;		Unchanged: 0/0
   661 ;; Data sizes:     COMRAM   BANK0   BANK1   BANK2   BANK3   BANK4   BANK5   BANK6   BANK7   BANK8   BANK9  BANK10  BANK1
      +1  BANK12  BANK13  BANK14
   662 ;;      Params:         0       0       0       0       0       0       0       0       0       0       0       0       
      +0       0       0       0
   663 ;;      Locals:         0      44       0       0       0       0       0       0       0       0       0       0       
      +0       0       0       0
   664 ;;      Temps:          0      20       0       0       0       0       0       0       0       0       0       0       
      +0       0       0       0
   665 ;;      Totals:         0      64       0       0       0       0       0       0       0       0       0       0       
      +0       0       0       0
   666 ;;Total ram usage:       64 bytes
   667 ;; Hardware stack levels required when called:    2
   668 ;; This function calls:
   669 ;;		___awdiv
   670 ;;		___awmod
   671 ;;		___fladd
   672 ;;		___fldiv
   673 ;;		___flge
   674 ;;		___flmul
   675 ;;		___flsub
   676 ;;		___fltol
   677 ;;		___lldiv
   678 ;;		___llmod
   679 ;;		___wmul
   680 ;;		___xxtofl
   681 ;;		_abs
   682 ;;		_adcNum0
   683 ;;		_adc_init
   684 ;;		_ccpNum0
   685 ;;		_ccp_init
   686 ;;		_steptakeL
   687 ;;		_steptakeR
   688 ;; This function is called by:
   689 ;;		Startup code after reset
   690 ;; This function uses a non-reentrant model
   691 ;;
   692                           
   693                           	psect	text0
   694  01F30C                     __ptext0:
   695                           	opt callstack 0
   696  01F30C                     _main:
   697                           	opt callstack 29
   698  01F30C                     
   699                           ;sm.c: 243:     adc_init();
   700  01F30C  EC70  F0ED         	call	_adc_init	;wreg free
   701                           
   702                           ;sm.c: 244:     ccp_init();
   703  01F310  ECA3  F0ED         	call	_ccp_init	;wreg free
   704  01F314                     
   705                           ;sm.c: 246:     TRISAbits.TRISA2 = 0;
   706  01F314  9488               	bcf	136,2,c	;volatile
   707  01F316                     
   708                           ;sm.c: 247:     PORTAbits.RA2 = 0;
   709  01F316  948D               	bcf	141,2,c	;volatile
   710  01F318                     
   711                           ;sm.c: 249:     TRISB = 0x0;
   712  01F318  0E00               	movlw	0
   713  01F31A  6E89               	movwf	137,c	;volatile
   714  01F31C                     
   715                           ;sm.c: 250:     TRISD = 0x0;
   716  01F31C  0E00               	movlw	0
   717  01F31E  6E8B               	movwf	139,c	;volatile
   718  01F320                     
   719                           ;sm.c: 252:     PORTB = 0;
   720  01F320  0E00               	movlw	0
   721  01F322  6E8E               	movwf	142,c	;volatile
   722  01F324                     
   723                           ;sm.c: 253:     PORTD = 0;
   724  01F324  0E00               	movlw	0
   725  01F326  6E90               	movwf	144,c	;volatile
   726  01F328                     
   727                           ;sm.c: 254:     TRISAbits.TRISA3 = 1;
   728  01F328  8688               	bsf	136,3,c	;volatile
   729  01F32A                     
   730                           ;sm.c: 255:     TRISAbits.TRISA4 = 1;
   731  01F32A  8888               	bsf	136,4,c	;volatile
   732  01F32C                     
   733                           ;sm.c: 256:     ANSELA = 0x0;
   734  01F32C  0E00               	movlw	0
   735  01F32E  010F               	movlb	15	; () banked
   736  01F330  6F11               	movwf	17,b	;volatile
   737  01F332                     
   738                           ; BSR set to: 15
   739                           ;sm.c: 257:     TRISCbits.TRISC2 = 1;
   740  01F332  848A               	bsf	138,2,c	;volatile
   741  01F334                     
   742                           ; BSR set to: 15
   743                           ;sm.c: 258:     ANSELC = 0x0;
   744  01F334  0E00               	movlw	0
   745  01F336  6F21               	movwf	33,b	;volatile
   746                           
   747                           ;sm.c: 261:     while(PORTAbits.RA3!=1){
   748  01F338  EFA4  F0F9         	goto	l3168
   749  01F33C                     l3166:
   750                           
   751                           ;sm.c: 262:         steptakeR(1);
   752  01F33C  0E00               	movlw	0
   753  01F33E  6E02               	movwf	(steptakeR@dir+1)^0,c
   754  01F340  0E01               	movlw	1
   755  01F342  6E01               	movwf	steptakeR@dir^0,c
   756  01F344  ECE7  F0EF         	call	_steptakeR	;wreg free
   757  01F348                     l3168:
   758                           
   759                           ;sm.c: 261:     while(PORTAbits.RA3!=1){
   760  01F348  A68D               	btfss	141,3,c	;volatile
   761  01F34A  EFA9  F0F9         	goto	u3051
   762  01F34E  EFAB  F0F9         	goto	u3050
   763  01F352                     u3051:
   764  01F352  EF9E  F0F9         	goto	l3166
   765  01F356                     u3050:
   766  01F356                     
   767                           ;sm.c: 265:     for(int t=0; t<245; t++){
   768  01F356  0E00               	movlw	0
   769  01F358  0100               	movlb	0	; () banked
   770  01F35A  6FAD               	movwf	(main@t+1)& (0+255),b
   771  01F35C  0E00               	movlw	0
   772  01F35E  6FAC               	movwf	main@t& (0+255),b
   773  01F360                     l3176:
   774                           
   775                           ; BSR set to: 0
   776                           ;sm.c: 266:         steptakeR(1);
   777  01F360  0E00               	movlw	0
   778  01F362  6E02               	movwf	(steptakeR@dir+1)^0,c
   779  01F364  0E01               	movlw	1
   780  01F366  6E01               	movwf	steptakeR@dir^0,c
   781  01F368  ECE7  F0EF         	call	_steptakeR	;wreg free
   782  01F36C                     
   783                           ;sm.c: 267:     }
   784  01F36C  0100               	movlb	0	; () banked
   785  01F36E  4BAC               	infsnz	main@t& (0+255),f,b
   786  01F370  2BAD               	incf	(main@t+1)& (0+255),f,b
   787  01F372                     
   788                           ; BSR set to: 0
   789  01F372  BFAD               	btfsc	(main@t+1)& (0+255),7,b
   790  01F374  EFC5  F0F9         	goto	u3061
   791  01F378  51AD               	movf	(main@t+1)& (0+255),w,b
   792  01F37A  E109               	bnz	u3060
   793  01F37C  0EF5               	movlw	245
   794  01F37E  5DAC               	subwf	main@t& (0+255),w,b
   795  01F380  A0D8               	btfss	status,0,c
   796  01F382  EFC5  F0F9         	goto	u3061
   797  01F386  EFC7  F0F9         	goto	u3060
   798  01F38A                     u3061:
   799  01F38A  EFB0  F0F9         	goto	l3176
   800  01F38E                     u3060:
   801  01F38E  EFCF  F0F9         	goto	l3184
   802  01F392                     l3182:
   803                           
   804                           ;sm.c: 270:         steptakeL(1);
   805  01F392  0E00               	movlw	0
   806  01F394  6E02               	movwf	(steptakeL@dir+1)^0,c
   807  01F396  0E01               	movlw	1
   808  01F398  6E01               	movwf	steptakeL@dir^0,c
   809  01F39A  EC75  F0EF         	call	_steptakeL	;wreg free
   810  01F39E                     l3184:
   811                           
   812                           ;sm.c: 269:     while(PORTAbits.RA4!=1){
   813  01F39E  A88D               	btfss	141,4,c	;volatile
   814  01F3A0  EFD4  F0F9         	goto	u3071
   815  01F3A4  EFD6  F0F9         	goto	u3070
   816  01F3A8                     u3071:
   817  01F3A8  EFC9  F0F9         	goto	l3182
   818  01F3AC                     u3070:
   819  01F3AC                     
   820                           ;sm.c: 273:     for(int t=0; t<245; t++){
   821  01F3AC  0E00               	movlw	0
   822  01F3AE  0100               	movlb	0	; () banked
   823  01F3B0  6FAF               	movwf	(main@t_398+1)& (0+255),b
   824  01F3B2  0E00               	movlw	0
   825  01F3B4  6FAE               	movwf	main@t_398& (0+255),b
   826  01F3B6                     l3192:
   827                           
   828                           ; BSR set to: 0
   829                           ;sm.c: 274:         steptakeL(1);
   830  01F3B6  0E00               	movlw	0
   831  01F3B8  6E02               	movwf	(steptakeL@dir+1)^0,c
   832  01F3BA  0E01               	movlw	1
   833  01F3BC  6E01               	movwf	steptakeL@dir^0,c
   834  01F3BE  EC75  F0EF         	call	_steptakeL	;wreg free
   835  01F3C2                     
   836                           ;sm.c: 275:     }
   837  01F3C2  0100               	movlb	0	; () banked
   838  01F3C4  4BAE               	infsnz	main@t_398& (0+255),f,b
   839  01F3C6  2BAF               	incf	(main@t_398+1)& (0+255),f,b
   840  01F3C8                     
   841                           ; BSR set to: 0
   842  01F3C8  BFAF               	btfsc	(main@t_398+1)& (0+255),7,b
   843  01F3CA  EFF0  F0F9         	goto	u3081
   844  01F3CE  51AF               	movf	(main@t_398+1)& (0+255),w,b
   845  01F3D0  E109               	bnz	u3080
   846  01F3D2  0EF5               	movlw	245
   847  01F3D4  5DAE               	subwf	main@t_398& (0+255),w,b
   848  01F3D6  A0D8               	btfss	status,0,c
   849  01F3D8  EFF0  F0F9         	goto	u3081
   850  01F3DC  EFF2  F0F9         	goto	u3080
   851  01F3E0                     u3081:
   852  01F3E0  EFDB  F0F9         	goto	l3192
   853  01F3E4                     u3080:
   854  01F3E4  EFF4  F0F9         	goto	l3198
   855  01F3E8                     l150:
   856  01F3E8                     l3198:
   857                           
   858                           ;sm.c: 284:         for(int w=0; w<10;w++){
   859  01F3E8  0E00               	movlw	0
   860  01F3EA  0100               	movlb	0	; () banked
   861  01F3EC  6FB1               	movwf	(main@w+1)& (0+255),b
   862  01F3EE  0E00               	movlw	0
   863  01F3F0  6FB0               	movwf	main@w& (0+255),b
   864  01F3F2                     l3204:
   865                           
   866                           ; BSR set to: 0
   867                           ;sm.c: 285:             if(value0 == 0){
   868  01F3F2  51D0               	movf	_value0& (0+255),w,b
   869  01F3F4  11D1               	iorwf	(_value0+1)& (0+255),w,b
   870  01F3F6  11D2               	iorwf	(_value0+2)& (0+255),w,b
   871  01F3F8  11D3               	iorwf	(_value0+3)& (0+255),w,b
   872  01F3FA  A4D8               	btfss	status,2,c
   873  01F3FC  EF02  F0FA         	goto	u3091
   874  01F400  EF04  F0FA         	goto	u3090
   875  01F404                     u3091:
   876  01F404  EF10  F0FA         	goto	l3208
   877  01F408                     u3090:
   878  01F408                     
   879                           ; BSR set to: 0
   880                           ;sm.c: 286:                 value0 = adcNum0();
   881  01F408  ECC1  F0ED         	call	_adcNum0	;wreg free
   882  01F40C  C001  F0D0         	movff	?_adcNum0,_value0
   883  01F410  C002  F0D1         	movff	?_adcNum0+1,_value0+1
   884  01F414  C003  F0D2         	movff	?_adcNum0+2,_value0+2
   885  01F418  C004  F0D3         	movff	?_adcNum0+3,_value0+3
   886                           
   887                           ;sm.c: 287:             }
   888  01F41C  EF2C  F0FA         	goto	l3210
   889  01F420                     l3208:
   890                           
   891                           ; BSR set to: 0
   892                           ;sm.c: 289:                 value0 = ((value0+adcNum0())/2);
   893  01F420  ECC1  F0ED         	call	_adcNum0	;wreg free
   894  01F424  0100               	movlb	0	; () banked
   895  01F426  51D0               	movf	_value0& (0+255),w,b
   896  01F428  2401               	addwf	?_adcNum0^0,w,c
   897  01F42A  6F7C               	movwf	??_main& (0+255),b
   898  01F42C  51D1               	movf	(_value0+1)& (0+255),w,b
   899  01F42E  2002               	addwfc	(?_adcNum0+1)^0,w,c
   900  01F430  6F7D               	movwf	(??_main+1)& (0+255),b
   901  01F432  51D2               	movf	(_value0+2)& (0+255),w,b
   902  01F434  2003               	addwfc	(?_adcNum0+2)^0,w,c
   903  01F436  6F7E               	movwf	(??_main+2)& (0+255),b
   904  01F438  51D3               	movf	(_value0+3)& (0+255),w,b
   905  01F43A  2004               	addwfc	(?_adcNum0+3)^0,w,c
   906  01F43C  6F7F               	movwf	(??_main+3)& (0+255),b
   907  01F43E  90D8               	bcf	status,0,c
   908  01F440  337F               	rrcf	(??_main+3)& (0+255),f,b
   909  01F442  337E               	rrcf	(??_main+2)& (0+255),f,b
   910  01F444  337D               	rrcf	(??_main+1)& (0+255),f,b
   911  01F446  337C               	rrcf	??_main& (0+255),f,b
   912  01F448  C07C  F0D0         	movff	??_main,_value0
   913  01F44C  C07D  F0D1         	movff	??_main+1,_value0+1
   914  01F450  C07E  F0D2         	movff	??_main+2,_value0+2
   915  01F454  C07F  F0D3         	movff	??_main+3,_value0+3
   916  01F458                     l3210:
   917                           
   918                           ;sm.c: 291:         }
   919  01F458  0100               	movlb	0	; () banked
   920  01F45A  4BB0               	infsnz	main@w& (0+255),f,b
   921  01F45C  2BB1               	incf	(main@w+1)& (0+255),f,b
   922  01F45E                     
   923                           ; BSR set to: 0
   924  01F45E  BFB1               	btfsc	(main@w+1)& (0+255),7,b
   925  01F460  EF3B  F0FA         	goto	u3101
   926  01F464  51B1               	movf	(main@w+1)& (0+255),w,b
   927  01F466  E109               	bnz	u3100
   928  01F468  0E0A               	movlw	10
   929  01F46A  5DB0               	subwf	main@w& (0+255),w,b
   930  01F46C  A0D8               	btfss	status,0,c
   931  01F46E  EF3B  F0FA         	goto	u3101
   932  01F472  EF3D  F0FA         	goto	u3100
   933  01F476                     u3101:
   934  01F476  EFF9  F0F9         	goto	l3204
   935  01F47A                     u3100:
   936  01F47A                     
   937                           ; BSR set to: 0
   938                           ;sm.c: 294:         if(abs(currfuel-value0)>1){
   939  01F47A  51D0               	movf	_value0& (0+255),w,b
   940  01F47C  5DCC               	subwf	_currfuel& (0+255),w,b
   941  01F47E  6E01               	movwf	abs@a^0,c
   942  01F480  51D1               	movf	(_value0+1)& (0+255),w,b
   943  01F482  59CD               	subwfb	(_currfuel+1)& (0+255),w,b
   944  01F484  6E02               	movwf	(abs@a+1)^0,c
   945  01F486  ECE0  F0ED         	call	_abs	;wreg free
   946  01F48A  BE02               	btfsc	(?_abs+1)^0,7,c
   947  01F48C  EF51  F0FA         	goto	u3111
   948  01F490  5002               	movf	(?_abs+1)^0,w,c
   949  01F492  E109               	bnz	u3110
   950  01F494  0E02               	movlw	2
   951  01F496  5C01               	subwf	?_abs^0,w,c
   952  01F498  A0D8               	btfss	status,0,c
   953  01F49A  EF51  F0FA         	goto	u3111
   954  01F49E  EF53  F0FA         	goto	u3110
   955  01F4A2                     u3111:
   956  01F4A2  EFF5  F0FC         	goto	l3330
   957  01F4A6                     u3110:
   958  01F4A6                     
   959                           ;sm.c: 295:             if((value0<currfuel)&&(temp==0)){
   960  01F4A6  0100               	movlb	0	; () banked
   961  01F4A8  51CC               	movf	_currfuel& (0+255),w,b
   962  01F4AA  5DD0               	subwf	_value0& (0+255),w,b
   963  01F4AC  51CD               	movf	(_currfuel+1)& (0+255),w,b
   964  01F4AE  59D1               	subwfb	(_value0+1)& (0+255),w,b
   965  01F4B0  51CE               	movf	(_currfuel+2)& (0+255),w,b
   966  01F4B2  59D2               	subwfb	(_value0+2)& (0+255),w,b
   967  01F4B4  51CF               	movf	(_currfuel+3)& (0+255),w,b
   968  01F4B6  59D3               	subwfb	(_value0+3)& (0+255),w,b
   969  01F4B8  B0D8               	btfsc	status,0,c
   970  01F4BA  EF61  F0FA         	goto	u3121
   971  01F4BE  EF63  F0FA         	goto	u3120
   972  01F4C2                     u3121:
   973  01F4C2  EF7C  F0FA         	goto	l3224
   974  01F4C6                     u3120:
   975  01F4C6                     
   976                           ; BSR set to: 0
   977  01F4C6  51D6               	movf	_temp& (0+255),w,b
   978  01F4C8  11D7               	iorwf	(_temp+1)& (0+255),w,b
   979  01F4CA  A4D8               	btfss	status,2,c
   980  01F4CC  EF6A  F0FA         	goto	u3131
   981  01F4D0  EF6C  F0FA         	goto	u3130
   982  01F4D4                     u3131:
   983  01F4D4  EF7C  F0FA         	goto	l3224
   984  01F4D8                     u3130:
   985  01F4D8                     
   986                           ; BSR set to: 0
   987                           ;sm.c: 296:                 _delay((unsigned long)((100)*(4000000/4000.0)));
   988  01F4D8  0E82               	movlw	130
   989  01F4DA  0100               	movlb	0	; () banked
   990  01F4DC  6F7C               	movwf	??_main& (0+255),b
   991  01F4DE  0EDD               	movlw	221
   992  01F4E0                     u3437:
   993  01F4E0  2EE8               	decfsz	wreg,f,c
   994  01F4E2  D7FE               	bra	u3437
   995  01F4E4  2F7C               	decfsz	??_main& (0+255),f,b
   996  01F4E6  D7FC               	bra	u3437
   997  01F4E8  D000               	nop2	
   998  01F4EA                     
   999                           ;sm.c: 297:                 temp=1;
  1000  01F4EA  0E00               	movlw	0
  1001  01F4EC  0100               	movlb	0	; () banked
  1002  01F4EE  6FD7               	movwf	(_temp+1)& (0+255),b
  1003  01F4F0  0E01               	movlw	1
  1004  01F4F2  6FD6               	movwf	_temp& (0+255),b
  1005                           
  1006                           ;sm.c: 298:             }
  1007  01F4F4  EFF5  F0FC         	goto	l3330
  1008  01F4F8                     l3224:
  1009                           
  1010                           ; BSR set to: 0
  1011                           ;sm.c: 300:                 int dist =((value0/3)-(currfuel/3)+360)%360;
  1012  01F4F8  0E03               	movlw	3
  1013  01F4FA  6E05               	movwf	___lldiv@divisor^0,c
  1014  01F4FC  0E00               	movlw	0
  1015  01F4FE  6E06               	movwf	(___lldiv@divisor+1)^0,c
  1016  01F500  0E00               	movlw	0
  1017  01F502  6E07               	movwf	(___lldiv@divisor+2)^0,c
  1018  01F504  0E00               	movlw	0
  1019  01F506  6E08               	movwf	(___lldiv@divisor+3)^0,c
  1020  01F508  C0D0  F001         	movff	_value0,___lldiv@dividend
  1021  01F50C  C0D1  F002         	movff	_value0+1,___lldiv@dividend+1
  1022  01F510  C0D2  F003         	movff	_value0+2,___lldiv@dividend+2
  1023  01F514  C0D3  F004         	movff	_value0+3,___lldiv@dividend+3
  1024  01F518  EC68  F0EE         	call	___lldiv	;wreg free
  1025  01F51C  C001  F07C         	movff	?___lldiv,??_main
  1026  01F520  C002  F07D         	movff	?___lldiv+1,??_main+1
  1027  01F524  C003  F07E         	movff	?___lldiv+2,??_main+2
  1028  01F528  C004  F07F         	movff	?___lldiv+3,??_main+3
  1029  01F52C  0E03               	movlw	3
  1030  01F52E  6E05               	movwf	___lldiv@divisor^0,c
  1031  01F530  0E00               	movlw	0
  1032  01F532  6E06               	movwf	(___lldiv@divisor+1)^0,c
  1033  01F534  0E00               	movlw	0
  1034  01F536  6E07               	movwf	(___lldiv@divisor+2)^0,c
  1035  01F538  0E00               	movlw	0
  1036  01F53A  6E08               	movwf	(___lldiv@divisor+3)^0,c
  1037  01F53C  C0CC  F001         	movff	_currfuel,___lldiv@dividend
  1038  01F540  C0CD  F002         	movff	_currfuel+1,___lldiv@dividend+1
  1039  01F544  C0CE  F003         	movff	_currfuel+2,___lldiv@dividend+2
  1040  01F548  C0CF  F004         	movff	_currfuel+3,___lldiv@dividend+3
  1041  01F54C  EC68  F0EE         	call	___lldiv	;wreg free
  1042  01F550  5001               	movf	?___lldiv^0,w,c
  1043  01F552  0100               	movlb	0	; () banked
  1044  01F554  5D7C               	subwf	??_main& (0+255),w,b
  1045  01F556  6F80               	movwf	(??_main+4)& (0+255),b
  1046  01F558  5002               	movf	(?___lldiv+1)^0,w,c
  1047  01F55A  597D               	subwfb	(??_main+1)& (0+255),w,b
  1048  01F55C  6F81               	movwf	(??_main+5)& (0+255),b
  1049  01F55E  5003               	movf	(?___lldiv+2)^0,w,c
  1050  01F560  597E               	subwfb	(??_main+2)& (0+255),w,b
  1051  01F562  6F82               	movwf	(??_main+6)& (0+255),b
  1052  01F564  5004               	movf	(?___lldiv+3)^0,w,c
  1053  01F566  597F               	subwfb	(??_main+3)& (0+255),w,b
  1054  01F568  6F83               	movwf	(??_main+7)& (0+255),b
  1055  01F56A  0E68               	movlw	104
  1056  01F56C  2580               	addwf	(??_main+4)& (0+255),w,b
  1057  01F56E  6E0E               	movwf	___llmod@dividend^0,c
  1058  01F570  0E01               	movlw	1
  1059  01F572  2181               	addwfc	(??_main+5)& (0+255),w,b
  1060  01F574  6E0F               	movwf	(___llmod@dividend+1)^0,c
  1061  01F576  0E00               	movlw	0
  1062  01F578  2182               	addwfc	(??_main+6)& (0+255),w,b
  1063  01F57A  6E10               	movwf	(___llmod@dividend+2)^0,c
  1064  01F57C  0E00               	movlw	0
  1065  01F57E  2183               	addwfc	(??_main+7)& (0+255),w,b
  1066  01F580  6E11               	movwf	(___llmod@dividend+3)^0,c
  1067  01F582  0E68               	movlw	104
  1068  01F584  6E12               	movwf	___llmod@divisor^0,c
  1069  01F586  0E01               	movlw	1
  1070  01F588  6E13               	movwf	(___llmod@divisor+1)^0,c
  1071  01F58A  0E00               	movlw	0
  1072  01F58C  6E14               	movwf	(___llmod@divisor+2)^0,c
  1073  01F58E  0E00               	movlw	0
  1074  01F590  6E15               	movwf	(___llmod@divisor+3)^0,c
  1075  01F592  EC24  F0EE         	call	___llmod	;wreg free
  1076  01F596  C00E  F0A8         	movff	?___llmod,main@dist
  1077  01F59A  C00F  F0A9         	movff	?___llmod+1,main@dist+1
  1078  01F59E                     
  1079                           ;sm.c: 301:                 if(dist<= 180){
  1080  01F59E  0100               	movlb	0	; () banked
  1081  01F5A0  BFA9               	btfsc	(main@dist+1)& (0+255),7,b
  1082  01F5A2  EFDE  F0FA         	goto	u3140
  1083  01F5A6  51A9               	movf	(main@dist+1)& (0+255),w,b
  1084  01F5A8  E107               	bnz	u3141
  1085  01F5AA  0EB5               	movlw	181
  1086  01F5AC  5DA8               	subwf	main@dist& (0+255),w,b
  1087  01F5AE  B0D8               	btfsc	status,0,c
  1088  01F5B0  EFDC  F0FA         	goto	u3141
  1089  01F5B4  EFDE  F0FA         	goto	u3140
  1090  01F5B8                     u3141:
  1091  01F5B8  EFDF  F0FB         	goto	l3274
  1092  01F5BC                     u3140:
  1093  01F5BC                     
  1094                           ; BSR set to: 0
  1095                           ;sm.c: 303:                     if(value0>1000){
  1096  01F5BC  51D3               	movf	(_value0+3)& (0+255),w,b
  1097  01F5BE  11D2               	iorwf	(_value0+2)& (0+255),w,b
  1098  01F5C0  E10B               	bnz	u3150
  1099  01F5C2  0EE9               	movlw	233
  1100  01F5C4  5DD0               	subwf	_value0& (0+255),w,b
  1101  01F5C6  0E03               	movlw	3
  1102  01F5C8  59D1               	subwfb	(_value0+1)& (0+255),w,b
  1103  01F5CA  A0D8               	btfss	status,0,c
  1104  01F5CC  EFEA  F0FA         	goto	u3151
  1105  01F5D0  EFEC  F0FA         	goto	u3150
  1106  01F5D4                     u3151:
  1107  01F5D4  EF0B  F0FB         	goto	l3244
  1108  01F5D8                     u3150:
  1109  01F5D8                     
  1110                           ; BSR set to: 0
  1111                           ;sm.c: 304:                         for(n=0; n<77; n++){
  1112  01F5D8  0E00               	movlw	0
  1113  01F5DA  6FBB               	movwf	(main@n+1)& (0+255),b
  1114  01F5DC  0E00               	movlw	0
  1115  01F5DE  6FBA               	movwf	main@n& (0+255),b
  1116  01F5E0                     l3236:
  1117                           
  1118                           ; BSR set to: 0
  1119                           ;sm.c: 305:                             steptakeR(1);
  1120  01F5E0  0E00               	movlw	0
  1121  01F5E2  6E02               	movwf	(steptakeR@dir+1)^0,c
  1122  01F5E4  0E01               	movlw	1
  1123  01F5E6  6E01               	movwf	steptakeR@dir^0,c
  1124  01F5E8  ECE7  F0EF         	call	_steptakeR	;wreg free
  1125  01F5EC                     
  1126                           ;sm.c: 306:                             test=1;
  1127  01F5EC  0E00               	movlw	0
  1128  01F5EE  0100               	movlb	0	; () banked
  1129  01F5F0  6FD9               	movwf	(_test+1)& (0+255),b
  1130  01F5F2  0E01               	movlw	1
  1131  01F5F4  6FD8               	movwf	_test& (0+255),b
  1132  01F5F6                     
  1133                           ; BSR set to: 0
  1134                           ;sm.c: 307:                         }
  1135  01F5F6  4BBA               	infsnz	main@n& (0+255),f,b
  1136  01F5F8  2BBB               	incf	(main@n+1)& (0+255),f,b
  1137  01F5FA                     
  1138                           ; BSR set to: 0
  1139  01F5FA  BFBB               	btfsc	(main@n+1)& (0+255),7,b
  1140  01F5FC  EF09  F0FB         	goto	u3161
  1141  01F600  51BB               	movf	(main@n+1)& (0+255),w,b
  1142  01F602  E109               	bnz	u3160
  1143  01F604  0E4D               	movlw	77
  1144  01F606  5DBA               	subwf	main@n& (0+255),w,b
  1145  01F608  A0D8               	btfss	status,0,c
  1146  01F60A  EF09  F0FB         	goto	u3161
  1147  01F60E  EF0B  F0FB         	goto	u3160
  1148  01F612                     u3161:
  1149  01F612  EFF0  F0FA         	goto	l3236
  1150  01F616                     u3160:
  1151  01F616                     l3244:
  1152                           
  1153                           ; BSR set to: 0
  1154                           ;sm.c: 310:                     for(int t=0; t<((int)value0-currfuel)*2+800/value0; t++)
      +                          {
  1155  01F616  0E00               	movlw	0
  1156  01F618  6F99               	movwf	(main@t_402+1)& (0+255),b
  1157  01F61A  0E00               	movlw	0
  1158  01F61C  6F98               	movwf	main@t_402& (0+255),b
  1159  01F61E  EF80  F0FB         	goto	l3272
  1160  01F622                     l3246:
  1161                           
  1162                           ; BSR set to: 0
  1163                           ;sm.c: 311:                         steptakeR(1);
  1164  01F622  0E00               	movlw	0
  1165  01F624  6E02               	movwf	(steptakeR@dir+1)^0,c
  1166  01F626  0E01               	movlw	1
  1167  01F628  6E01               	movwf	steptakeR@dir^0,c
  1168  01F62A  ECE7  F0EF         	call	_steptakeR	;wreg free
  1169  01F62E                     
  1170                           ;sm.c: 312:                         if(PORTAbits.RA3==1){
  1171  01F62E  A68D               	btfss	141,3,c	;volatile
  1172  01F630  EF1C  F0FB         	goto	u3171
  1173  01F634  EF1E  F0FB         	goto	u3170
  1174  01F638                     u3171:
  1175  01F638  EF7D  F0FB         	goto	l3270
  1176  01F63C                     u3170:
  1177  01F63C                     
  1178                           ;sm.c: 314:                             for(int t=0; t<245; t++){
  1179  01F63C  0E00               	movlw	0
  1180  01F63E  0100               	movlb	0	; () banked
  1181  01F640  6FB3               	movwf	(main@t_403+1)& (0+255),b
  1182  01F642  0E00               	movlw	0
  1183  01F644  6FB2               	movwf	main@t_403& (0+255),b
  1184  01F646                     l3252:
  1185                           
  1186                           ; BSR set to: 0
  1187  01F646  BFB3               	btfsc	(main@t_403+1)& (0+255),7,b
  1188  01F648  EF2F  F0FB         	goto	u3181
  1189  01F64C  51B3               	movf	(main@t_403+1)& (0+255),w,b
  1190  01F64E  E109               	bnz	u3180
  1191  01F650  0EF5               	movlw	245
  1192  01F652  5DB2               	subwf	main@t_403& (0+255),w,b
  1193  01F654  A0D8               	btfss	status,0,c
  1194  01F656  EF2F  F0FB         	goto	u3181
  1195  01F65A  EF31  F0FB         	goto	u3180
  1196  01F65E                     u3181:
  1197  01F65E  EF33  F0FB         	goto	l3256
  1198  01F662                     u3180:
  1199  01F662  EF3E  F0FB         	goto	l3262
  1200  01F666                     l3256:
  1201                           
  1202                           ; BSR set to: 0
  1203                           ;sm.c: 315:                                 steptakeR(1);
  1204  01F666  0E00               	movlw	0
  1205  01F668  6E02               	movwf	(steptakeR@dir+1)^0,c
  1206  01F66A  0E01               	movlw	1
  1207  01F66C  6E01               	movwf	steptakeR@dir^0,c
  1208  01F66E  ECE7  F0EF         	call	_steptakeR	;wreg free
  1209  01F672                     
  1210                           ;sm.c: 316:                             }
  1211  01F672  0100               	movlb	0	; () banked
  1212  01F674  4BB2               	infsnz	main@t_403& (0+255),f,b
  1213  01F676  2BB3               	incf	(main@t_403+1)& (0+255),f,b
  1214  01F678  EF23  F0FB         	goto	l3252
  1215  01F67C                     l3262:
  1216                           
  1217                           ; BSR set to: 0
  1218                           ;sm.c: 318:                             for(int t=0; t<abs((int)value0)*2; t++){
  1219  01F67C  0E00               	movlw	0
  1220  01F67E  6F9B               	movwf	(main@t_404+1)& (0+255),b
  1221  01F680  0E00               	movlw	0
  1222  01F682  6F9A               	movwf	main@t_404& (0+255),b
  1223  01F684  EF62  F0FB         	goto	l168
  1224  01F688                     l3264:
  1225                           
  1226                           ; BSR set to: 0
  1227                           ;sm.c: 319:                                 steptakeR(1);
  1228  01F688  0E00               	movlw	0
  1229  01F68A  6E02               	movwf	(steptakeR@dir+1)^0,c
  1230  01F68C  0E01               	movlw	1
  1231  01F68E  6E01               	movwf	steptakeR@dir^0,c
  1232  01F690  ECE7  F0EF         	call	_steptakeR	;wreg free
  1233  01F694                     
  1234                           ;sm.c: 320:                                 currfuel = value0/2;
  1235  01F694  C0D0  F07C         	movff	_value0,??_main
  1236  01F698  C0D1  F07D         	movff	_value0+1,??_main+1
  1237  01F69C  C0D2  F07E         	movff	_value0+2,??_main+2
  1238  01F6A0  C0D3  F07F         	movff	_value0+3,??_main+3
  1239  01F6A4  0100               	movlb	0	; () banked
  1240  01F6A6  90D8               	bcf	status,0,c
  1241  01F6A8  337F               	rrcf	(??_main+3)& (0+255),f,b
  1242  01F6AA  337E               	rrcf	(??_main+2)& (0+255),f,b
  1243  01F6AC  337D               	rrcf	(??_main+1)& (0+255),f,b
  1244  01F6AE  337C               	rrcf	??_main& (0+255),f,b
  1245  01F6B0  C07C  F0CC         	movff	??_main,_currfuel
  1246  01F6B4  C07D  F0CD         	movff	??_main+1,_currfuel+1
  1247  01F6B8  C07E  F0CE         	movff	??_main+2,_currfuel+2
  1248  01F6BC  C07F  F0CF         	movff	??_main+3,_currfuel+3
  1249  01F6C0                     
  1250                           ; BSR set to: 0
  1251                           ;sm.c: 321:                             }
  1252  01F6C0  4B9A               	infsnz	main@t_404& (0+255),f,b
  1253  01F6C2  2B9B               	incf	(main@t_404+1)& (0+255),f,b
  1254  01F6C4                     l168:
  1255                           
  1256                           ; BSR set to: 0
  1257  01F6C4  C0D0  F001         	movff	_value0,abs@a
  1258  01F6C8  C0D1  F002         	movff	_value0+1,abs@a+1
  1259  01F6CC  ECE0  F0ED         	call	_abs	;wreg free
  1260  01F6D0  90D8               	bcf	status,0,c
  1261  01F6D2  3601               	rlcf	?_abs^0,f,c
  1262  01F6D4  3602               	rlcf	(?_abs+1)^0,f,c
  1263  01F6D6  5001               	movf	?_abs^0,w,c
  1264  01F6D8  0100               	movlb	0	; () banked
  1265  01F6DA  5D9A               	subwf	main@t_404& (0+255),w,b
  1266  01F6DC  519B               	movf	(main@t_404+1)& (0+255),w,b
  1267  01F6DE  0A80               	xorlw	128
  1268  01F6E0  6F7C               	movwf	??_main& (0+255),b
  1269  01F6E2  5002               	movf	(?_abs+1)^0,w,c
  1270  01F6E4  0A80               	xorlw	128
  1271  01F6E6  597C               	subwfb	??_main& (0+255),w,b
  1272  01F6E8  A0D8               	btfss	status,0,c
  1273  01F6EA  EF79  F0FB         	goto	u3191
  1274  01F6EE  EF7B  F0FB         	goto	u3190
  1275  01F6F2                     u3191:
  1276  01F6F2  EF44  F0FB         	goto	l3264
  1277  01F6F6                     u3190:
  1278  01F6F6  EFD5  F0FB         	goto	l171
  1279  01F6FA                     l3270:
  1280                           
  1281                           ;sm.c: 324:                     }
  1282  01F6FA  0100               	movlb	0	; () banked
  1283  01F6FC  4B98               	infsnz	main@t_402& (0+255),f,b
  1284  01F6FE  2B99               	incf	(main@t_402+1)& (0+255),f,b
  1285  01F700                     l3272:
  1286                           
  1287                           ; BSR set to: 0
  1288  01F700  0E20               	movlw	32
  1289  01F702  6E01               	movwf	___lldiv@dividend^0,c
  1290  01F704  0E03               	movlw	3
  1291  01F706  6E02               	movwf	(___lldiv@dividend+1)^0,c
  1292  01F708  0E00               	movlw	0
  1293  01F70A  6E03               	movwf	(___lldiv@dividend+2)^0,c
  1294  01F70C  0E00               	movlw	0
  1295  01F70E  6E04               	movwf	(___lldiv@dividend+3)^0,c
  1296  01F710  C0D0  F005         	movff	_value0,___lldiv@divisor
  1297  01F714  C0D1  F006         	movff	_value0+1,___lldiv@divisor+1
  1298  01F718  C0D2  F007         	movff	_value0+2,___lldiv@divisor+2
  1299  01F71C  C0D3  F008         	movff	_value0+3,___lldiv@divisor+3
  1300  01F720  EC68  F0EE         	call	___lldiv	;wreg free
  1301  01F724  C0D0  F07C         	movff	_value0,??_main
  1302  01F728  C0D1  F07D         	movff	_value0+1,??_main+1
  1303  01F72C  0E00               	movlw	0
  1304  01F72E  0100               	movlb	0	; () banked
  1305  01F730  BF7D               	btfsc	(??_main+1)& (0+255),7,b
  1306  01F732  0EFF               	movlw	255
  1307  01F734  6F7E               	movwf	(??_main+2)& (0+255),b
  1308  01F736  6F7F               	movwf	(??_main+3)& (0+255),b
  1309  01F738  51CC               	movf	_currfuel& (0+255),w,b
  1310  01F73A  5D7C               	subwf	??_main& (0+255),w,b
  1311  01F73C  6F80               	movwf	(??_main+4)& (0+255),b
  1312  01F73E  51CD               	movf	(_currfuel+1)& (0+255),w,b
  1313  01F740  597D               	subwfb	(??_main+1)& (0+255),w,b
  1314  01F742  6F81               	movwf	(??_main+5)& (0+255),b
  1315  01F744  51CE               	movf	(_currfuel+2)& (0+255),w,b
  1316  01F746  597E               	subwfb	(??_main+2)& (0+255),w,b
  1317  01F748  6F82               	movwf	(??_main+6)& (0+255),b
  1318  01F74A  51CF               	movf	(_currfuel+3)& (0+255),w,b
  1319  01F74C  597F               	subwfb	(??_main+3)& (0+255),w,b
  1320  01F74E  6F83               	movwf	(??_main+7)& (0+255),b
  1321  01F750  90D8               	bcf	status,0,c
  1322  01F752  3580               	rlcf	(??_main+4)& (0+255),w,b
  1323  01F754  6F84               	movwf	(??_main+8)& (0+255),b
  1324  01F756  3581               	rlcf	(??_main+5)& (0+255),w,b
  1325  01F758  6F85               	movwf	(??_main+9)& (0+255),b
  1326  01F75A  3582               	rlcf	(??_main+6)& (0+255),w,b
  1327  01F75C  6F86               	movwf	(??_main+10)& (0+255),b
  1328  01F75E  3583               	rlcf	(??_main+7)& (0+255),w,b
  1329  01F760  6F87               	movwf	(??_main+11)& (0+255),b
  1330  01F762  5001               	movf	?___lldiv^0,w,c
  1331  01F764  2584               	addwf	(??_main+8)& (0+255),w,b
  1332  01F766  6F88               	movwf	(??_main+12)& (0+255),b
  1333  01F768  5002               	movf	(?___lldiv+1)^0,w,c
  1334  01F76A  2185               	addwfc	(??_main+9)& (0+255),w,b
  1335  01F76C  6F89               	movwf	(??_main+13)& (0+255),b
  1336  01F76E  5003               	movf	(?___lldiv+2)^0,w,c
  1337  01F770  2186               	addwfc	(??_main+10)& (0+255),w,b
  1338  01F772  6F8A               	movwf	(??_main+14)& (0+255),b
  1339  01F774  5004               	movf	(?___lldiv+3)^0,w,c
  1340  01F776  2187               	addwfc	(??_main+11)& (0+255),w,b
  1341  01F778  6F8B               	movwf	(??_main+15)& (0+255),b
  1342  01F77A  C098  F08C         	movff	main@t_402,??_main+16
  1343  01F77E  C099  F08D         	movff	main@t_402+1,??_main+17
  1344  01F782  0E00               	movlw	0
  1345  01F784  BF8D               	btfsc	(??_main+17)& (0+255),7,b
  1346  01F786  0EFF               	movlw	255
  1347  01F788  6F8E               	movwf	(??_main+18)& (0+255),b
  1348  01F78A  6F8F               	movwf	(??_main+19)& (0+255),b
  1349  01F78C  5188               	movf	(??_main+12)& (0+255),w,b
  1350  01F78E  5D8C               	subwf	(??_main+16)& (0+255),w,b
  1351  01F790  5189               	movf	(??_main+13)& (0+255),w,b
  1352  01F792  598D               	subwfb	(??_main+17)& (0+255),w,b
  1353  01F794  518A               	movf	(??_main+14)& (0+255),w,b
  1354  01F796  598E               	subwfb	(??_main+18)& (0+255),w,b
  1355  01F798  518B               	movf	(??_main+15)& (0+255),w,b
  1356  01F79A  598F               	subwfb	(??_main+19)& (0+255),w,b
  1357  01F79C  A0D8               	btfss	status,0,c
  1358  01F79E  EFD3  F0FB         	goto	u3201
  1359  01F7A2  EFD5  F0FB         	goto	u3200
  1360  01F7A6                     u3201:
  1361  01F7A6  EF11  F0FB         	goto	l3246
  1362  01F7AA                     u3200:
  1363  01F7AA                     l171:
  1364                           
  1365                           ; BSR set to: 0
  1366                           ;sm.c: 325:                     currfuel = value0;
  1367  01F7AA  C0D0  F0CC         	movff	_value0,_currfuel
  1368  01F7AE  C0D1  F0CD         	movff	_value0+1,_currfuel+1
  1369  01F7B2  C0D2  F0CE         	movff	_value0+2,_currfuel+2
  1370  01F7B6  C0D3  F0CF         	movff	_value0+3,_currfuel+3
  1371                           
  1372                           ;sm.c: 326:                 }
  1373  01F7BA  EFF1  F0FC         	goto	l3328
  1374  01F7BE                     l3274:
  1375                           
  1376                           ; BSR set to: 0
  1377  01F7BE  BFA9               	btfsc	(main@dist+1)& (0+255),7,b
  1378  01F7C0  EFEB  F0FB         	goto	u3211
  1379  01F7C4  51A9               	movf	(main@dist+1)& (0+255),w,b
  1380  01F7C6  E109               	bnz	u3210
  1381  01F7C8  0EB5               	movlw	181
  1382  01F7CA  5DA8               	subwf	main@dist& (0+255),w,b
  1383  01F7CC  A0D8               	btfss	status,0,c
  1384  01F7CE  EFEB  F0FB         	goto	u3211
  1385  01F7D2  EFED  F0FB         	goto	u3210
  1386  01F7D6                     u3211:
  1387  01F7D6  EFF1  F0FC         	goto	l3328
  1388  01F7DA                     u3210:
  1389  01F7DA                     
  1390                           ; BSR set to: 0
  1391                           ;sm.c: 329:                     if (test==1){
  1392  01F7DA  05D8               	decf	_test& (0+255),w,b
  1393  01F7DC  11D9               	iorwf	(_test+1)& (0+255),w,b
  1394  01F7DE  A4D8               	btfss	status,2,c
  1395  01F7E0  EFF4  F0FB         	goto	u3221
  1396  01F7E4  EFF6  F0FB         	goto	u3220
  1397  01F7E8                     u3221:
  1398  01F7E8  EF15  F0FC         	goto	l3292
  1399  01F7EC                     u3220:
  1400  01F7EC                     
  1401                           ; BSR set to: 0
  1402                           ;sm.c: 330:                         for(n=0; n<77; n++){
  1403  01F7EC  0E00               	movlw	0
  1404  01F7EE  6FBB               	movwf	(main@n+1)& (0+255),b
  1405  01F7F0  0E00               	movlw	0
  1406  01F7F2  6FBA               	movwf	main@n& (0+255),b
  1407  01F7F4                     l3284:
  1408                           
  1409                           ; BSR set to: 0
  1410                           ;sm.c: 331:                             steptakeR(2);
  1411  01F7F4  0E00               	movlw	0
  1412  01F7F6  6E02               	movwf	(steptakeR@dir+1)^0,c
  1413  01F7F8  0E02               	movlw	2
  1414  01F7FA  6E01               	movwf	steptakeR@dir^0,c
  1415  01F7FC  ECE7  F0EF         	call	_steptakeR	;wreg free
  1416  01F800                     
  1417                           ;sm.c: 332:                             test=0;
  1418  01F800  0E00               	movlw	0
  1419  01F802  0100               	movlb	0	; () banked
  1420  01F804  6FD9               	movwf	(_test+1)& (0+255),b
  1421  01F806  0E00               	movlw	0
  1422  01F808  6FD8               	movwf	_test& (0+255),b
  1423  01F80A                     
  1424                           ; BSR set to: 0
  1425                           ;sm.c: 333:                         }
  1426  01F80A  4BBA               	infsnz	main@n& (0+255),f,b
  1427  01F80C  2BBB               	incf	(main@n+1)& (0+255),f,b
  1428  01F80E                     
  1429                           ; BSR set to: 0
  1430  01F80E  BFBB               	btfsc	(main@n+1)& (0+255),7,b
  1431  01F810  EF13  F0FC         	goto	u3231
  1432  01F814  51BB               	movf	(main@n+1)& (0+255),w,b
  1433  01F816  E109               	bnz	u3230
  1434  01F818  0E4D               	movlw	77
  1435  01F81A  5DBA               	subwf	main@n& (0+255),w,b
  1436  01F81C  A0D8               	btfss	status,0,c
  1437  01F81E  EF13  F0FC         	goto	u3231
  1438  01F822  EF15  F0FC         	goto	u3230
  1439  01F826                     u3231:
  1440  01F826  EFFA  F0FB         	goto	l3284
  1441  01F82A                     u3230:
  1442  01F82A                     l3292:
  1443                           
  1444                           ; BSR set to: 0
  1445                           ;sm.c: 336:                     for(int t=0; t<abs(currfuel-(int)value0)*2-400/value0; t
      +                          ++){
  1446  01F82A  0E00               	movlw	0
  1447  01F82C  6F9D               	movwf	(main@t_405+1)& (0+255),b
  1448  01F82E  0E00               	movlw	0
  1449  01F830  6F9C               	movwf	main@t_405& (0+255),b
  1450  01F832  EFA5  F0FC         	goto	l3326
  1451  01F836                     l3294:
  1452                           
  1453                           ; BSR set to: 0
  1454                           ;sm.c: 337:                         steptakeR(2);
  1455  01F836  0E00               	movlw	0
  1456  01F838  6E02               	movwf	(steptakeR@dir+1)^0,c
  1457  01F83A  0E02               	movlw	2
  1458  01F83C  6E01               	movwf	steptakeR@dir^0,c
  1459  01F83E  ECE7  F0EF         	call	_steptakeR	;wreg free
  1460  01F842                     
  1461                           ;sm.c: 339:                         if((value0==0)&&(currfuel>1000)){
  1462  01F842  0100               	movlb	0	; () banked
  1463  01F844  51D0               	movf	_value0& (0+255),w,b
  1464  01F846  11D1               	iorwf	(_value0+1)& (0+255),w,b
  1465  01F848  11D2               	iorwf	(_value0+2)& (0+255),w,b
  1466  01F84A  11D3               	iorwf	(_value0+3)& (0+255),w,b
  1467  01F84C  A4D8               	btfss	status,2,c
  1468  01F84E  EF2B  F0FC         	goto	u3241
  1469  01F852  EF2D  F0FC         	goto	u3240
  1470  01F856                     u3241:
  1471  01F856  EF47  F0FC         	goto	l3302
  1472  01F85A                     u3240:
  1473  01F85A                     
  1474                           ; BSR set to: 0
  1475  01F85A  51CF               	movf	(_currfuel+3)& (0+255),w,b
  1476  01F85C  11CE               	iorwf	(_currfuel+2)& (0+255),w,b
  1477  01F85E  E10B               	bnz	u3250
  1478  01F860  0EE9               	movlw	233
  1479  01F862  5DCC               	subwf	_currfuel& (0+255),w,b
  1480  01F864  0E03               	movlw	3
  1481  01F866  59CD               	subwfb	(_currfuel+1)& (0+255),w,b
  1482  01F868  A0D8               	btfss	status,0,c
  1483  01F86A  EF39  F0FC         	goto	u3251
  1484  01F86E  EF3B  F0FC         	goto	u3250
  1485  01F872                     u3251:
  1486  01F872  EF47  F0FC         	goto	l3302
  1487  01F876                     u3250:
  1488  01F876                     
  1489                           ; BSR set to: 0
  1490                           ;sm.c: 340:                             currfuel=currfuel+50;
  1491  01F876  0E32               	movlw	50
  1492  01F878  25CC               	addwf	_currfuel& (0+255),w,b
  1493  01F87A  6FCC               	movwf	_currfuel& (0+255),b
  1494  01F87C  0E00               	movlw	0
  1495  01F87E  21CD               	addwfc	(_currfuel+1)& (0+255),w,b
  1496  01F880  6FCD               	movwf	(_currfuel+1)& (0+255),b
  1497  01F882  0E00               	movlw	0
  1498  01F884  21CE               	addwfc	(_currfuel+2)& (0+255),w,b
  1499  01F886  6FCE               	movwf	(_currfuel+2)& (0+255),b
  1500  01F888  0E00               	movlw	0
  1501  01F88A  21CF               	addwfc	(_currfuel+3)& (0+255),w,b
  1502  01F88C  6FCF               	movwf	(_currfuel+3)& (0+255),b
  1503  01F88E                     l3302:
  1504                           
  1505                           ; BSR set to: 0
  1506                           ;sm.c: 342:                         if(PORTAbits.RA3==1){
  1507  01F88E  A68D               	btfss	141,3,c	;volatile
  1508  01F890  EF4C  F0FC         	goto	u3261
  1509  01F894  EF4E  F0FC         	goto	u3260
  1510  01F898                     u3261:
  1511  01F898  EFA3  F0FC         	goto	l3324
  1512  01F89C                     u3260:
  1513  01F89C                     
  1514                           ; BSR set to: 0
  1515                           ;sm.c: 344:                             for(int t=0; t<240; t++){
  1516  01F89C  0E00               	movlw	0
  1517  01F89E  6FB5               	movwf	(main@t_406+1)& (0+255),b
  1518  01F8A0  0E00               	movlw	0
  1519  01F8A2  6FB4               	movwf	main@t_406& (0+255),b
  1520  01F8A4                     l3306:
  1521                           
  1522                           ; BSR set to: 0
  1523  01F8A4  BFB5               	btfsc	(main@t_406+1)& (0+255),7,b
  1524  01F8A6  EF5E  F0FC         	goto	u3271
  1525  01F8AA  51B5               	movf	(main@t_406+1)& (0+255),w,b
  1526  01F8AC  E109               	bnz	u3270
  1527  01F8AE  0EF0               	movlw	240
  1528  01F8B0  5DB4               	subwf	main@t_406& (0+255),w,b
  1529  01F8B2  A0D8               	btfss	status,0,c
  1530  01F8B4  EF5E  F0FC         	goto	u3271
  1531  01F8B8  EF60  F0FC         	goto	u3270
  1532  01F8BC                     u3271:
  1533  01F8BC  EF62  F0FC         	goto	l3310
  1534  01F8C0                     u3270:
  1535  01F8C0  EF6D  F0FC         	goto	l3316
  1536  01F8C4                     l3310:
  1537                           
  1538                           ; BSR set to: 0
  1539                           ;sm.c: 345:                                 steptakeR(2);
  1540  01F8C4  0E00               	movlw	0
  1541  01F8C6  6E02               	movwf	(steptakeR@dir+1)^0,c
  1542  01F8C8  0E02               	movlw	2
  1543  01F8CA  6E01               	movwf	steptakeR@dir^0,c
  1544  01F8CC  ECE7  F0EF         	call	_steptakeR	;wreg free
  1545  01F8D0                     
  1546                           ;sm.c: 346:                             }
  1547  01F8D0  0100               	movlb	0	; () banked
  1548  01F8D2  4BB4               	infsnz	main@t_406& (0+255),f,b
  1549  01F8D4  2BB5               	incf	(main@t_406+1)& (0+255),f,b
  1550  01F8D6  EF52  F0FC         	goto	l3306
  1551  01F8DA                     l3316:
  1552                           
  1553                           ; BSR set to: 0
  1554                           ;sm.c: 348:                             for(int t=0; t<abs(2048/2-(int)value0)*2; t++){
  1555  01F8DA  0E00               	movlw	0
  1556  01F8DC  6F9F               	movwf	(main@t_407+1)& (0+255),b
  1557  01F8DE  0E00               	movlw	0
  1558  01F8E0  6F9E               	movwf	main@t_407& (0+255),b
  1559  01F8E2  EF7C  F0FC         	goto	l3322
  1560  01F8E6                     l3318:
  1561                           
  1562                           ; BSR set to: 0
  1563                           ;sm.c: 349:                                 steptakeR(2);
  1564  01F8E6  0E00               	movlw	0
  1565  01F8E8  6E02               	movwf	(steptakeR@dir+1)^0,c
  1566  01F8EA  0E02               	movlw	2
  1567  01F8EC  6E01               	movwf	steptakeR@dir^0,c
  1568  01F8EE  ECE7  F0EF         	call	_steptakeR	;wreg free
  1569  01F8F2                     
  1570                           ;sm.c: 350:                             }
  1571  01F8F2  0100               	movlb	0	; () banked
  1572  01F8F4  4B9E               	infsnz	main@t_407& (0+255),f,b
  1573  01F8F6  2B9F               	incf	(main@t_407+1)& (0+255),f,b
  1574  01F8F8                     l3322:
  1575                           
  1576                           ; BSR set to: 0
  1577  01F8F8  51D0               	movf	_value0& (0+255),w,b
  1578  01F8FA  0800               	sublw	0
  1579  01F8FC  6E01               	movwf	abs@a^0,c
  1580  01F8FE  51D1               	movf	(_value0+1)& (0+255),w,b
  1581  01F900  A0D8               	btfss	status,0,c
  1582  01F902  2AE8               	incf	wreg,f,c
  1583  01F904  0804               	sublw	4
  1584  01F906  6E02               	movwf	(abs@a+1)^0,c
  1585  01F908  ECE0  F0ED         	call	_abs	;wreg free
  1586  01F90C  90D8               	bcf	status,0,c
  1587  01F90E  3601               	rlcf	?_abs^0,f,c
  1588  01F910  3602               	rlcf	(?_abs+1)^0,f,c
  1589  01F912  5001               	movf	?_abs^0,w,c
  1590  01F914  0100               	movlb	0	; () banked
  1591  01F916  5D9E               	subwf	main@t_407& (0+255),w,b
  1592  01F918  519F               	movf	(main@t_407+1)& (0+255),w,b
  1593  01F91A  0A80               	xorlw	128
  1594  01F91C  6F7C               	movwf	??_main& (0+255),b
  1595  01F91E  5002               	movf	(?_abs+1)^0,w,c
  1596  01F920  0A80               	xorlw	128
  1597  01F922  597C               	subwfb	??_main& (0+255),w,b
  1598  01F924  A0D8               	btfss	status,0,c
  1599  01F926  EF97  F0FC         	goto	u3281
  1600  01F92A  EF99  F0FC         	goto	u3280
  1601  01F92E                     u3281:
  1602  01F92E  EF73  F0FC         	goto	l3318
  1603  01F932                     u3280:
  1604  01F932                     
  1605                           ; BSR set to: 0
  1606                           ;sm.c: 351:                             currfuel = value0;
  1607  01F932  C0D0  F0CC         	movff	_value0,_currfuel
  1608  01F936  C0D1  F0CD         	movff	_value0+1,_currfuel+1
  1609  01F93A  C0D2  F0CE         	movff	_value0+2,_currfuel+2
  1610  01F93E  C0D3  F0CF         	movff	_value0+3,_currfuel+3
  1611                           
  1612                           ;sm.c: 352:                             break;
  1613  01F942  EFD5  F0FB         	goto	l171
  1614  01F946                     l3324:
  1615                           
  1616                           ; BSR set to: 0
  1617                           ;sm.c: 354:                     }
  1618  01F946  4B9C               	infsnz	main@t_405& (0+255),f,b
  1619  01F948  2B9D               	incf	(main@t_405+1)& (0+255),f,b
  1620  01F94A                     l3326:
  1621                           
  1622                           ; BSR set to: 0
  1623  01F94A  51D0               	movf	_value0& (0+255),w,b
  1624  01F94C  5DCC               	subwf	_currfuel& (0+255),w,b
  1625  01F94E  6E01               	movwf	abs@a^0,c
  1626  01F950  51D1               	movf	(_value0+1)& (0+255),w,b
  1627  01F952  59CD               	subwfb	(_currfuel+1)& (0+255),w,b
  1628  01F954  6E02               	movwf	(abs@a+1)^0,c
  1629  01F956  ECE0  F0ED         	call	_abs	;wreg free
  1630  01F95A  90D8               	bcf	status,0,c
  1631  01F95C  3401               	rlcf	?_abs^0,w,c
  1632  01F95E  0100               	movlb	0	; () banked
  1633  01F960  6F7C               	movwf	??_main& (0+255),b
  1634  01F962  3402               	rlcf	(?_abs+1)^0,w,c
  1635  01F964  6F7D               	movwf	(??_main+1)& (0+255),b
  1636  01F966  6B7E               	clrf	(??_main+2)& (0+255),b
  1637  01F968  BF7D               	btfsc	(??_main+1)& (0+255),7,b
  1638  01F96A  077E               	decf	(??_main+2)& (0+255),f,b
  1639  01F96C  517E               	movf	(??_main+2)& (0+255),w,b
  1640  01F96E  6F7F               	movwf	(??_main+3)& (0+255),b
  1641  01F970  0E90               	movlw	144
  1642  01F972  6E01               	movwf	___lldiv@dividend^0,c
  1643  01F974  0E01               	movlw	1
  1644  01F976  6E02               	movwf	(___lldiv@dividend+1)^0,c
  1645  01F978  0E00               	movlw	0
  1646  01F97A  6E03               	movwf	(___lldiv@dividend+2)^0,c
  1647  01F97C  0E00               	movlw	0
  1648  01F97E  6E04               	movwf	(___lldiv@dividend+3)^0,c
  1649  01F980  C0D0  F005         	movff	_value0,___lldiv@divisor
  1650  01F984  C0D1  F006         	movff	_value0+1,___lldiv@divisor+1
  1651  01F988  C0D2  F007         	movff	_value0+2,___lldiv@divisor+2
  1652  01F98C  C0D3  F008         	movff	_value0+3,___lldiv@divisor+3
  1653  01F990  EC68  F0EE         	call	___lldiv	;wreg free
  1654  01F994  5001               	movf	?___lldiv^0,w,c
  1655  01F996  0100               	movlb	0	; () banked
  1656  01F998  5D7C               	subwf	??_main& (0+255),w,b
  1657  01F99A  6F80               	movwf	(??_main+4)& (0+255),b
  1658  01F99C  5002               	movf	(?___lldiv+1)^0,w,c
  1659  01F99E  597D               	subwfb	(??_main+1)& (0+255),w,b
  1660  01F9A0  6F81               	movwf	(??_main+5)& (0+255),b
  1661  01F9A2  5003               	movf	(?___lldiv+2)^0,w,c
  1662  01F9A4  597E               	subwfb	(??_main+2)& (0+255),w,b
  1663  01F9A6  6F82               	movwf	(??_main+6)& (0+255),b
  1664  01F9A8  5004               	movf	(?___lldiv+3)^0,w,c
  1665  01F9AA  597F               	subwfb	(??_main+3)& (0+255),w,b
  1666  01F9AC  6F83               	movwf	(??_main+7)& (0+255),b
  1667  01F9AE  C09C  F084         	movff	main@t_405,??_main+8
  1668  01F9B2  C09D  F085         	movff	main@t_405+1,??_main+9
  1669  01F9B6  0E00               	movlw	0
  1670  01F9B8  BF85               	btfsc	(??_main+9)& (0+255),7,b
  1671  01F9BA  0EFF               	movlw	255
  1672  01F9BC  6F86               	movwf	(??_main+10)& (0+255),b
  1673  01F9BE  6F87               	movwf	(??_main+11)& (0+255),b
  1674  01F9C0  5180               	movf	(??_main+4)& (0+255),w,b
  1675  01F9C2  5D84               	subwf	(??_main+8)& (0+255),w,b
  1676  01F9C4  5181               	movf	(??_main+5)& (0+255),w,b
  1677  01F9C6  5985               	subwfb	(??_main+9)& (0+255),w,b
  1678  01F9C8  5182               	movf	(??_main+6)& (0+255),w,b
  1679  01F9CA  5986               	subwfb	(??_main+10)& (0+255),w,b
  1680  01F9CC  5183               	movf	(??_main+7)& (0+255),w,b
  1681  01F9CE  5987               	subwfb	(??_main+11)& (0+255),w,b
  1682  01F9D0  A0D8               	btfss	status,0,c
  1683  01F9D2  EFED  F0FC         	goto	u3291
  1684  01F9D6  EFEF  F0FC         	goto	u3290
  1685  01F9DA                     u3291:
  1686  01F9DA  EF1B  F0FC         	goto	l3294
  1687  01F9DE                     u3290:
  1688  01F9DE  EFD5  F0FB         	goto	l171
  1689  01F9E2                     l3328:
  1690                           
  1691                           ; BSR set to: 0
  1692                           ;sm.c: 357:                 temp=0;
  1693  01F9E2  0E00               	movlw	0
  1694  01F9E4  6FD7               	movwf	(_temp+1)& (0+255),b
  1695  01F9E6  0E00               	movlw	0
  1696  01F9E8  6FD6               	movwf	_temp& (0+255),b
  1697  01F9EA                     l3330:
  1698                           
  1699                           ;sm.c: 362:         if(value0 <= 100){
  1700  01F9EA  0100               	movlb	0	; () banked
  1701  01F9EC  51D3               	movf	(_value0+3)& (0+255),w,b
  1702  01F9EE  11D2               	iorwf	(_value0+2)& (0+255),w,b
  1703  01F9F0  11D1               	iorwf	(_value0+1)& (0+255),w,b
  1704  01F9F2  E107               	bnz	u3301
  1705  01F9F4  0E65               	movlw	101
  1706  01F9F6  5DD0               	subwf	_value0& (0+255),w,b
  1707  01F9F8  B0D8               	btfsc	status,0,c
  1708  01F9FA  EF01  F0FD         	goto	u3301
  1709  01F9FE  EF03  F0FD         	goto	u3300
  1710  01FA02                     u3301:
  1711  01FA02  EF06  F0FD         	goto	l187
  1712  01FA06                     u3300:
  1713  01FA06                     
  1714                           ; BSR set to: 0
  1715                           ;sm.c: 363:              LATAbits.LATA2 =1;
  1716  01FA06  8483               	bsf	131,2,c	;volatile
  1717                           
  1718                           ;sm.c: 364:         }
  1719  01FA08  EF07  F0FD         	goto	l3334
  1720  01FA0C                     l187:
  1721                           
  1722                           ; BSR set to: 0
  1723                           ;sm.c: 366:             LATAbits.LATA2 =0;
  1724  01FA0C  9483               	bcf	131,2,c	;volatile
  1725  01FA0E                     l3334:
  1726                           
  1727                           ; BSR set to: 0
  1728                           ;sm.c: 369:         freq=ccpNum0()+1;
  1729  01FA0E  EC3A  F0F2         	call	_ccpNum0	;wreg free
  1730  01FA12  C06E  F090         	movff	?_ccpNum0,_main$1121
  1731  01FA16  C06F  F091         	movff	?_ccpNum0+1,_main$1121+1
  1732  01FA1A  C070  F092         	movff	?_ccpNum0+2,_main$1121+2
  1733  01FA1E  C071  F093         	movff	?_ccpNum0+3,_main$1121+3
  1734  01FA22                     
  1735                           ;sm.c: 369:         freq=ccpNum0()+1;
  1736  01FA22  0E00               	movlw	0
  1737  01FA24  6E57               	movwf	___fladd@a^0,c
  1738  01FA26  0E00               	movlw	0
  1739  01FA28  6E58               	movwf	(___fladd@a+1)^0,c
  1740  01FA2A  0E80               	movlw	128
  1741  01FA2C  6E59               	movwf	(___fladd@a+2)^0,c
  1742  01FA2E  0E3F               	movlw	63
  1743  01FA30  6E5A               	movwf	(___fladd@a+3)^0,c
  1744  01FA32  C090  F053         	movff	_main$1121,___fladd@b
  1745  01FA36  C091  F054         	movff	_main$1121+1,___fladd@b+1
  1746  01FA3A  C092  F055         	movff	_main$1121+2,___fladd@b+2
  1747  01FA3E  C093  F056         	movff	_main$1121+3,___fladd@b+3
  1748  01FA42  EC25  F0F7         	call	___fladd	;wreg free
  1749  01FA46  C053  F064         	movff	?___fladd,___fltol@f1
  1750  01FA4A  C054  F065         	movff	?___fladd+1,___fltol@f1+1
  1751  01FA4E  C055  F066         	movff	?___fladd+2,___fltol@f1+2
  1752  01FA52  C056  F067         	movff	?___fladd+3,___fltol@f1+3
  1753  01FA56  ECDC  F0F0         	call	___fltol	;wreg free
  1754  01FA5A  C064  F0DA         	movff	?___fltol,_freq
  1755  01FA5E  C065  F0DB         	movff	?___fltol+1,_freq+1
  1756  01FA62                     
  1757                           ;sm.c: 370:         if(abs(currfreq-freq)>=1){
  1758  01FA62  0100               	movlb	0	; () banked
  1759  01FA64  51DA               	movf	_freq& (0+255),w,b
  1760  01FA66  5DC8               	subwf	_currfreq& (0+255),w,b
  1761  01FA68  6E01               	movwf	abs@a^0,c
  1762  01FA6A  51DB               	movf	(_freq+1)& (0+255),w,b
  1763  01FA6C  59C9               	subwfb	(_currfreq+1)& (0+255),w,b
  1764  01FA6E  6E02               	movwf	(abs@a+1)^0,c
  1765  01FA70  ECE0  F0ED         	call	_abs	;wreg free
  1766  01FA74  BE02               	btfsc	(?_abs+1)^0,7,c
  1767  01FA76  EF45  F0FD         	goto	u3311
  1768  01FA7A  5002               	movf	(?_abs+1)^0,w,c
  1769  01FA7C  E108               	bnz	u3310
  1770  01FA7E  0401               	decf	?_abs^0,w,c
  1771  01FA80  A0D8               	btfss	status,0,c
  1772  01FA82  EF45  F0FD         	goto	u3311
  1773  01FA86  EF47  F0FD         	goto	u3310
  1774  01FA8A                     u3311:
  1775  01FA8A  EFF4  F0F9         	goto	l3198
  1776  01FA8E                     u3310:
  1777  01FA8E                     
  1778                           ;sm.c: 371:             if(freq<5){
  1779  01FA8E  0100               	movlb	0	; () banked
  1780  01FA90  BFDB               	btfsc	(_freq+1)& (0+255),7,b
  1781  01FA92  EF56  F0FD         	goto	u3320
  1782  01FA96  51DB               	movf	(_freq+1)& (0+255),w,b
  1783  01FA98  E107               	bnz	u3321
  1784  01FA9A  0E05               	movlw	5
  1785  01FA9C  5DDA               	subwf	_freq& (0+255),w,b
  1786  01FA9E  B0D8               	btfsc	status,0,c
  1787  01FAA0  EF54  F0FD         	goto	u3321
  1788  01FAA4  EF56  F0FD         	goto	u3320
  1789  01FAA8                     u3321:
  1790  01FAA8  EF5A  F0FD         	goto	l3344
  1791  01FAAC                     u3320:
  1792  01FAAC                     
  1793                           ; BSR set to: 0
  1794                           ;sm.c: 372:                 freq=0;
  1795  01FAAC  0E00               	movlw	0
  1796  01FAAE  6FDB               	movwf	(_freq+1)& (0+255),b
  1797  01FAB0  0E00               	movlw	0
  1798  01FAB2  6FDA               	movwf	_freq& (0+255),b
  1799  01FAB4                     l3344:
  1800                           
  1801                           ; BSR set to: 0
  1802                           ;sm.c: 374:             int dist2 =((int)(freq/0.2778)-(int)(currfreq/0.2778)+360)%360;
  1803  01FAB4  0ECD               	movlw	205
  1804  01FAB6  6E3E               	movwf	___fldiv@a^0,c
  1805  01FAB8  0E3B               	movlw	59
  1806  01FABA  6E3F               	movwf	(___fldiv@a+1)^0,c
  1807  01FABC  0E8E               	movlw	142
  1808  01FABE  6E40               	movwf	(___fldiv@a+2)^0,c
  1809  01FAC0  0E3E               	movlw	62
  1810  01FAC2  6E41               	movwf	(___fldiv@a+3)^0,c
  1811  01FAC4  C0DA  F013         	movff	_freq,___xxtofl@val
  1812  01FAC8  C0DB  F014         	movff	_freq+1,___xxtofl@val+1
  1813  01FACC  0E00               	movlw	0
  1814  01FACE  BE14               	btfsc	(___xxtofl@val+1)^0,7,c
  1815  01FAD0  0EFF               	movlw	-1
  1816  01FAD2  6E15               	movwf	(___xxtofl@val+2)^0,c
  1817  01FAD4  6E16               	movwf	(___xxtofl@val+3)^0,c
  1818  01FAD6  0E01               	movlw	1
  1819  01FAD8  EC60  F0F1         	call	___xxtofl
  1820  01FADC  C013  F03A         	movff	?___xxtofl,___fldiv@b
  1821  01FAE0  C014  F03B         	movff	?___xxtofl+1,___fldiv@b+1
  1822  01FAE4  C015  F03C         	movff	?___xxtofl+2,___fldiv@b+2
  1823  01FAE8  C016  F03D         	movff	?___xxtofl+3,___fldiv@b+3
  1824  01FAEC  EC43  F0F3         	call	___fldiv	;wreg free
  1825  01FAF0  C03A  F064         	movff	?___fldiv,___fltol@f1
  1826  01FAF4  C03B  F065         	movff	?___fldiv+1,___fltol@f1+1
  1827  01FAF8  C03C  F066         	movff	?___fldiv+2,___fltol@f1+2
  1828  01FAFC  C03D  F067         	movff	?___fldiv+3,___fltol@f1+3
  1829  01FB00  ECDC  F0F0         	call	___fltol	;wreg free
  1830  01FB04  C064  F07C         	movff	?___fltol,??_main
  1831  01FB08  C065  F07D         	movff	?___fltol+1,??_main+1
  1832  01FB0C  C066  F07E         	movff	?___fltol+2,??_main+2
  1833  01FB10  C067  F07F         	movff	?___fltol+3,??_main+3
  1834  01FB14  0ECD               	movlw	205
  1835  01FB16  6E3E               	movwf	___fldiv@a^0,c
  1836  01FB18  0E3B               	movlw	59
  1837  01FB1A  6E3F               	movwf	(___fldiv@a+1)^0,c
  1838  01FB1C  0E8E               	movlw	142
  1839  01FB1E  6E40               	movwf	(___fldiv@a+2)^0,c
  1840  01FB20  0E3E               	movlw	62
  1841  01FB22  6E41               	movwf	(___fldiv@a+3)^0,c
  1842  01FB24  C0C8  F013         	movff	_currfreq,___xxtofl@val
  1843  01FB28  C0C9  F014         	movff	_currfreq+1,___xxtofl@val+1
  1844  01FB2C  C0CA  F015         	movff	_currfreq+2,___xxtofl@val+2
  1845  01FB30  C0CB  F016         	movff	_currfreq+3,___xxtofl@val+3
  1846  01FB34  0E00               	movlw	0
  1847  01FB36  EC60  F0F1         	call	___xxtofl
  1848  01FB3A  C013  F03A         	movff	?___xxtofl,___fldiv@b
  1849  01FB3E  C014  F03B         	movff	?___xxtofl+1,___fldiv@b+1
  1850  01FB42  C015  F03C         	movff	?___xxtofl+2,___fldiv@b+2
  1851  01FB46  C016  F03D         	movff	?___xxtofl+3,___fldiv@b+3
  1852  01FB4A  EC43  F0F3         	call	___fldiv	;wreg free
  1853  01FB4E  C03A  F064         	movff	?___fldiv,___fltol@f1
  1854  01FB52  C03B  F065         	movff	?___fldiv+1,___fltol@f1+1
  1855  01FB56  C03C  F066         	movff	?___fldiv+2,___fltol@f1+2
  1856  01FB5A  C03D  F067         	movff	?___fldiv+3,___fltol@f1+3
  1857  01FB5E  ECDC  F0F0         	call	___fltol	;wreg free
  1858  01FB62  0100               	movlb	0	; () banked
  1859  01FB64  5164               	movf	?___fltol& (0+255),w,b
  1860  01FB66  5F7C               	subwf	??_main& (0+255),f,b
  1861  01FB68  5165               	movf	(?___fltol+1)& (0+255),w,b
  1862  01FB6A  5B7D               	subwfb	(??_main+1)& (0+255),f,b
  1863  01FB6C  0E68               	movlw	104
  1864  01FB6E  257C               	addwf	??_main& (0+255),w,b
  1865  01FB70  6F6E               	movwf	___awmod@dividend& (0+255),b
  1866  01FB72  0E01               	movlw	1
  1867  01FB74  217D               	addwfc	(??_main+1)& (0+255),w,b
  1868  01FB76  6F6F               	movwf	(___awmod@dividend+1)& (0+255),b
  1869  01FB78  0E01               	movlw	1
  1870  01FB7A  6F71               	movwf	(___awmod@divisor+1)& (0+255),b
  1871  01FB7C  0E68               	movlw	104
  1872  01FB7E  6F70               	movwf	___awmod@divisor& (0+255),b
  1873  01FB80  ECBA  F0EE         	call	___awmod	;wreg free
  1874  01FB84  C06E  F0AA         	movff	?___awmod,main@dist2
  1875  01FB88  C06F  F0AB         	movff	?___awmod+1,main@dist2+1
  1876  01FB8C                     
  1877                           ;sm.c: 375:             if(dist2<= 180){
  1878  01FB8C  0100               	movlb	0	; () banked
  1879  01FB8E  BFAB               	btfsc	(main@dist2+1)& (0+255),7,b
  1880  01FB90  EFD5  F0FD         	goto	u3330
  1881  01FB94  51AB               	movf	(main@dist2+1)& (0+255),w,b
  1882  01FB96  E107               	bnz	u3331
  1883  01FB98  0EB5               	movlw	181
  1884  01FB9A  5DAA               	subwf	main@dist2& (0+255),w,b
  1885  01FB9C  B0D8               	btfsc	status,0,c
  1886  01FB9E  EFD3  F0FD         	goto	u3331
  1887  01FBA2  EFD5  F0FD         	goto	u3330
  1888  01FBA6                     u3331:
  1889  01FBA6  EF03  F0FF         	goto	l3384
  1890  01FBAA                     u3330:
  1891  01FBAA                     
  1892                           ; BSR set to: 0
  1893                           ;sm.c: 377:                 for(int t=0; t<(freq-currfreq)*20.48+1000/(freq*9)+freq/3; t
      +                          ++){
  1894  01FBAA  0E00               	movlw	0
  1895  01FBAC  6FA1               	movwf	(main@t_418+1)& (0+255),b
  1896  01FBAE  0E00               	movlw	0
  1897  01FBB0  6FA0               	movwf	main@t_418& (0+255),b
  1898  01FBB2  EF45  F0FE         	goto	l3378
  1899  01FBB6                     l3350:
  1900                           
  1901                           ; BSR set to: 0
  1902                           ;sm.c: 378:                     steptakeL(1);
  1903  01FBB6  0E00               	movlw	0
  1904  01FBB8  6E02               	movwf	(steptakeL@dir+1)^0,c
  1905  01FBBA  0E01               	movlw	1
  1906  01FBBC  6E01               	movwf	steptakeL@dir^0,c
  1907  01FBBE  EC75  F0EF         	call	_steptakeL	;wreg free
  1908  01FBC2                     
  1909                           ;sm.c: 379:                     if(PORTAbits.RA4==1){
  1910  01FBC2  A88D               	btfss	141,4,c	;volatile
  1911  01FBC4  EFE6  F0FD         	goto	u3341
  1912  01FBC8  EFE8  F0FD         	goto	u3340
  1913  01FBCC                     u3341:
  1914  01FBCC  EF42  F0FE         	goto	l3376
  1915  01FBD0                     u3340:
  1916  01FBD0                     
  1917                           ;sm.c: 381:                         for(int t=0; t<245; t++){
  1918  01FBD0  0E00               	movlw	0
  1919  01FBD2  0100               	movlb	0	; () banked
  1920  01FBD4  6FB7               	movwf	(main@t_419+1)& (0+255),b
  1921  01FBD6  0E00               	movlw	0
  1922  01FBD8  6FB6               	movwf	main@t_419& (0+255),b
  1923  01FBDA                     l3356:
  1924                           
  1925                           ; BSR set to: 0
  1926  01FBDA  BFB7               	btfsc	(main@t_419+1)& (0+255),7,b
  1927  01FBDC  EFF9  F0FD         	goto	u3351
  1928  01FBE0  51B7               	movf	(main@t_419+1)& (0+255),w,b
  1929  01FBE2  E109               	bnz	u3350
  1930  01FBE4  0EF5               	movlw	245
  1931  01FBE6  5DB6               	subwf	main@t_419& (0+255),w,b
  1932  01FBE8  A0D8               	btfss	status,0,c
  1933  01FBEA  EFF9  F0FD         	goto	u3351
  1934  01FBEE  EFFB  F0FD         	goto	u3350
  1935  01FBF2                     u3351:
  1936  01FBF2  EFFD  F0FD         	goto	l3360
  1937  01FBF6                     u3350:
  1938  01FBF6  EF08  F0FE         	goto	l3366
  1939  01FBFA                     l3360:
  1940                           
  1941                           ; BSR set to: 0
  1942                           ;sm.c: 382:                             steptakeL(1);
  1943  01FBFA  0E00               	movlw	0
  1944  01FBFC  6E02               	movwf	(steptakeL@dir+1)^0,c
  1945  01FBFE  0E01               	movlw	1
  1946  01FC00  6E01               	movwf	steptakeL@dir^0,c
  1947  01FC02  EC75  F0EF         	call	_steptakeL	;wreg free
  1948  01FC06                     
  1949                           ;sm.c: 383:                         }
  1950  01FC06  0100               	movlb	0	; () banked
  1951  01FC08  4BB6               	infsnz	main@t_419& (0+255),f,b
  1952  01FC0A  2BB7               	incf	(main@t_419+1)& (0+255),f,b
  1953  01FC0C  EFED  F0FD         	goto	l3356
  1954  01FC10                     l3366:
  1955                           
  1956                           ; BSR set to: 0
  1957                           ;sm.c: 385:                         for(int t=0; t<abs((int)freq)*20; t++){
  1958  01FC10  0E00               	movlw	0
  1959  01FC12  6FA3               	movwf	(main@t_420+1)& (0+255),b
  1960  01FC14  0E00               	movlw	0
  1961  01FC16  6FA2               	movwf	main@t_420& (0+255),b
  1962  01FC18  EF17  F0FE         	goto	l3372
  1963  01FC1C                     l3368:
  1964                           
  1965                           ; BSR set to: 0
  1966                           ;sm.c: 386:                             steptakeL(1);
  1967  01FC1C  0E00               	movlw	0
  1968  01FC1E  6E02               	movwf	(steptakeL@dir+1)^0,c
  1969  01FC20  0E01               	movlw	1
  1970  01FC22  6E01               	movwf	steptakeL@dir^0,c
  1971  01FC24  EC75  F0EF         	call	_steptakeL	;wreg free
  1972  01FC28                     
  1973                           ;sm.c: 387:                         }
  1974  01FC28  0100               	movlb	0	; () banked
  1975  01FC2A  4BA2               	infsnz	main@t_420& (0+255),f,b
  1976  01FC2C  2BA3               	incf	(main@t_420+1)& (0+255),f,b
  1977  01FC2E                     l3372:
  1978                           
  1979                           ; BSR set to: 0
  1980  01FC2E  C0DA  F001         	movff	_freq,abs@a
  1981  01FC32  C0DB  F002         	movff	_freq+1,abs@a+1
  1982  01FC36  ECE0  F0ED         	call	_abs	;wreg free
  1983  01FC3A  C001  F005         	movff	?_abs,___wmul@multiplier
  1984  01FC3E  C002  F006         	movff	?_abs+1,___wmul@multiplier+1
  1985  01FC42  0E00               	movlw	0
  1986  01FC44  6E08               	movwf	(___wmul@multiplicand+1)^0,c
  1987  01FC46  0E14               	movlw	20
  1988  01FC48  6E07               	movwf	___wmul@multiplicand^0,c
  1989  01FC4A  EC75  F0ED         	call	___wmul	;wreg free
  1990  01FC4E  5005               	movf	?___wmul^0,w,c
  1991  01FC50  0100               	movlb	0	; () banked
  1992  01FC52  5DA2               	subwf	main@t_420& (0+255),w,b
  1993  01FC54  51A3               	movf	(main@t_420+1)& (0+255),w,b
  1994  01FC56  0A80               	xorlw	128
  1995  01FC58  6F7C               	movwf	??_main& (0+255),b
  1996  01FC5A  5006               	movf	(?___wmul+1)^0,w,c
  1997  01FC5C  0A80               	xorlw	128
  1998  01FC5E  597C               	subwfb	??_main& (0+255),w,b
  1999  01FC60  A0D8               	btfss	status,0,c
  2000  01FC62  EF35  F0FE         	goto	u3361
  2001  01FC66  EF37  F0FE         	goto	u3360
  2002  01FC6A                     u3361:
  2003  01FC6A  EF0E  F0FE         	goto	l3368
  2004  01FC6E                     u3360:
  2005  01FC6E                     l3374:
  2006                           
  2007                           ; BSR set to: 0
  2008                           ;sm.c: 388:                         currfreq = freq;
  2009  01FC6E  C0DA  F0C8         	movff	_freq,_currfreq
  2010  01FC72  C0DB  F0C9         	movff	_freq+1,_currfreq+1
  2011  01FC76  0E00               	movlw	0
  2012  01FC78  BFC9               	btfsc	(_currfreq+1)& (0+255),7,b
  2013  01FC7A  0EFF               	movlw	-1
  2014  01FC7C  6FCA               	movwf	(_currfreq+2)& (0+255),b
  2015  01FC7E  6FCB               	movwf	(_currfreq+3)& (0+255),b
  2016                           
  2017                           ;sm.c: 389:                         break;
  2018  01FC80  EFF8  F0FE         	goto	l3382
  2019  01FC84                     l3376:
  2020                           
  2021                           ;sm.c: 391:                 }
  2022  01FC84  0100               	movlb	0	; () banked
  2023  01FC86  4BA0               	infsnz	main@t_418& (0+255),f,b
  2024  01FC88  2BA1               	incf	(main@t_418+1)& (0+255),f,b
  2025  01FC8A                     l3378:
  2026                           
  2027                           ; BSR set to: 0
  2028  01FC8A  0E00               	movlw	0
  2029  01FC8C  6E08               	movwf	(___wmul@multiplicand+1)^0,c
  2030  01FC8E  0E09               	movlw	9
  2031  01FC90  6E07               	movwf	___wmul@multiplicand^0,c
  2032  01FC92  C0DA  F005         	movff	_freq,___wmul@multiplier
  2033  01FC96  C0DB  F006         	movff	_freq+1,___wmul@multiplier+1
  2034  01FC9A  EC75  F0ED         	call	___wmul	;wreg free
  2035  01FC9E  C005  F00D         	movff	?___wmul,___awdiv@divisor
  2036  01FCA2  C006  F00E         	movff	?___wmul+1,___awdiv@divisor+1
  2037  01FCA6  0E03               	movlw	3
  2038  01FCA8  6E0C               	movwf	(___awdiv@dividend+1)^0,c
  2039  01FCAA  0EE8               	movlw	232
  2040  01FCAC  6E0B               	movwf	___awdiv@dividend^0,c
  2041  01FCAE  EC13  F0EF         	call	___awdiv	;wreg free
  2042  01FCB2  C00B  F013         	movff	?___awdiv,___xxtofl@val
  2043  01FCB6  C00C  F014         	movff	?___awdiv+1,___xxtofl@val+1
  2044  01FCBA  0E00               	movlw	0
  2045  01FCBC  BE14               	btfsc	(___xxtofl@val+1)^0,7,c
  2046  01FCBE  0EFF               	movlw	-1
  2047  01FCC0  6E15               	movwf	(___xxtofl@val+2)^0,c
  2048  01FCC2  6E16               	movwf	(___xxtofl@val+3)^0,c
  2049  01FCC4  0E01               	movlw	1
  2050  01FCC6  EC60  F0F1         	call	___xxtofl
  2051  01FCCA  C013  F057         	movff	?___xxtofl,___fladd@a
  2052  01FCCE  C014  F058         	movff	?___xxtofl+1,___fladd@a+1
  2053  01FCD2  C015  F059         	movff	?___xxtofl+2,___fladd@a+2
  2054  01FCD6  C016  F05A         	movff	?___xxtofl+3,___fladd@a+3
  2055  01FCDA  0E0A               	movlw	10
  2056  01FCDC  6E25               	movwf	___flmul@a^0,c
  2057  01FCDE  0ED7               	movlw	215
  2058  01FCE0  6E26               	movwf	(___flmul@a+1)^0,c
  2059  01FCE2  0EA3               	movlw	163
  2060  01FCE4  6E27               	movwf	(___flmul@a+2)^0,c
  2061  01FCE6  0E41               	movlw	65
  2062  01FCE8  6E28               	movwf	(___flmul@a+3)^0,c
  2063  01FCEA  C0DA  F07C         	movff	_freq,??_main
  2064  01FCEE  C0DB  F07D         	movff	_freq+1,??_main+1
  2065  01FCF2  0E00               	movlw	0
  2066  01FCF4  0100               	movlb	0	; () banked
  2067  01FCF6  BF7D               	btfsc	(??_main+1)& (0+255),7,b
  2068  01FCF8  0EFF               	movlw	255
  2069  01FCFA  6F7E               	movwf	(??_main+2)& (0+255),b
  2070  01FCFC  6F7F               	movwf	(??_main+3)& (0+255),b
  2071  01FCFE  51C8               	movf	_currfreq& (0+255),w,b
  2072  01FD00  5D7C               	subwf	??_main& (0+255),w,b
  2073  01FD02  6E13               	movwf	___xxtofl@val^0,c
  2074  01FD04  51C9               	movf	(_currfreq+1)& (0+255),w,b
  2075  01FD06  597D               	subwfb	(??_main+1)& (0+255),w,b
  2076  01FD08  6E14               	movwf	(___xxtofl@val+1)^0,c
  2077  01FD0A  51CA               	movf	(_currfreq+2)& (0+255),w,b
  2078  01FD0C  597E               	subwfb	(??_main+2)& (0+255),w,b
  2079  01FD0E  6E15               	movwf	(___xxtofl@val+2)^0,c
  2080  01FD10  51CB               	movf	(_currfreq+3)& (0+255),w,b
  2081  01FD12  597F               	subwfb	(??_main+3)& (0+255),w,b
  2082  01FD14  6E16               	movwf	(___xxtofl@val+3)^0,c
  2083  01FD16  0E00               	movlw	0
  2084  01FD18  EC60  F0F1         	call	___xxtofl
  2085  01FD1C  C013  F021         	movff	?___xxtofl,___flmul@b
  2086  01FD20  C014  F022         	movff	?___xxtofl+1,___flmul@b+1
  2087  01FD24  C015  F023         	movff	?___xxtofl+2,___flmul@b+2
  2088  01FD28  C016  F024         	movff	?___xxtofl+3,___flmul@b+3
  2089  01FD2C  EC10  F0F5         	call	___flmul	;wreg free
  2090  01FD30  C021  F053         	movff	?___flmul,___fladd@b
  2091  01FD34  C022  F054         	movff	?___flmul+1,___fladd@b+1
  2092  01FD38  C023  F055         	movff	?___flmul+2,___fladd@b+2
  2093  01FD3C  C024  F056         	movff	?___flmul+3,___fladd@b+3
  2094  01FD40  EC25  F0F7         	call	___fladd	;wreg free
  2095  01FD44  C053  F094         	movff	?___fladd,_main$1122
  2096  01FD48  C054  F095         	movff	?___fladd+1,_main$1122+1
  2097  01FD4C  C055  F096         	movff	?___fladd+2,_main$1122+2
  2098  01FD50  C056  F097         	movff	?___fladd+3,_main$1122+3
  2099  01FD54  C0A0  F013         	movff	main@t_418,___xxtofl@val
  2100  01FD58  C0A1  F014         	movff	main@t_418+1,___xxtofl@val+1
  2101  01FD5C  0E00               	movlw	0
  2102  01FD5E  BE14               	btfsc	(___xxtofl@val+1)^0,7,c
  2103  01FD60  0EFF               	movlw	-1
  2104  01FD62  6E15               	movwf	(___xxtofl@val+2)^0,c
  2105  01FD64  6E16               	movwf	(___xxtofl@val+3)^0,c
  2106  01FD66  0E01               	movlw	1
  2107  01FD68  EC60  F0F1         	call	___xxtofl
  2108  01FD6C  C013  F06C         	movff	?___xxtofl,___flge@ff1
  2109  01FD70  C014  F06D         	movff	?___xxtofl+1,___flge@ff1+1
  2110  01FD74  C015  F06E         	movff	?___xxtofl+2,___flge@ff1+2
  2111  01FD78  C016  F06F         	movff	?___xxtofl+3,___flge@ff1+3
  2112  01FD7C  0E00               	movlw	0
  2113  01FD7E  6E0E               	movwf	(___awdiv@divisor+1)^0,c
  2114  01FD80  0E03               	movlw	3
  2115  01FD82  6E0D               	movwf	___awdiv@divisor^0,c
  2116  01FD84  C0DA  F00B         	movff	_freq,___awdiv@dividend
  2117  01FD88  C0DB  F00C         	movff	_freq+1,___awdiv@dividend+1
  2118  01FD8C  EC13  F0EF         	call	___awdiv	;wreg free
  2119  01FD90  C00B  F013         	movff	?___awdiv,___xxtofl@val
  2120  01FD94  C00C  F014         	movff	?___awdiv+1,___xxtofl@val+1
  2121  01FD98  0E00               	movlw	0
  2122  01FD9A  BE14               	btfsc	(___xxtofl@val+1)^0,7,c
  2123  01FD9C  0EFF               	movlw	-1
  2124  01FD9E  6E15               	movwf	(___xxtofl@val+2)^0,c
  2125  01FDA0  6E16               	movwf	(___xxtofl@val+3)^0,c
  2126  01FDA2  0E01               	movlw	1
  2127  01FDA4  EC60  F0F1         	call	___xxtofl
  2128  01FDA8  C013  F057         	movff	?___xxtofl,___fladd@a
  2129  01FDAC  C014  F058         	movff	?___xxtofl+1,___fladd@a+1
  2130  01FDB0  C015  F059         	movff	?___xxtofl+2,___fladd@a+2
  2131  01FDB4  C016  F05A         	movff	?___xxtofl+3,___fladd@a+3
  2132  01FDB8  C094  F053         	movff	_main$1122,___fladd@b
  2133  01FDBC  C095  F054         	movff	_main$1122+1,___fladd@b+1
  2134  01FDC0  C096  F055         	movff	_main$1122+2,___fladd@b+2
  2135  01FDC4  C097  F056         	movff	_main$1122+3,___fladd@b+3
  2136  01FDC8  EC25  F0F7         	call	___fladd	;wreg free
  2137  01FDCC  C053  F070         	movff	?___fladd,___flge@ff2
  2138  01FDD0  C054  F071         	movff	?___fladd+1,___flge@ff2+1
  2139  01FDD4  C055  F072         	movff	?___fladd+2,___flge@ff2+2
  2140  01FDD8  C056  F073         	movff	?___fladd+3,___flge@ff2+3
  2141  01FDDC  EC59  F0F0         	call	___flge	;wreg free
  2142  01FDE0  0100               	movlb	0	; () banked
  2143  01FDE2  A0D8               	btfss	status,0,c
  2144  01FDE4  EFF6  F0FE         	goto	u3371
  2145  01FDE8  EFF8  F0FE         	goto	u3370
  2146  01FDEC                     u3371:
  2147  01FDEC  EFDB  F0FD         	goto	l3350
  2148  01FDF0                     u3370:
  2149  01FDF0                     l3382:
  2150                           
  2151                           ; BSR set to: 0
  2152                           ;sm.c: 392:                 currfreq = freq;
  2153  01FDF0  C0DA  F0C8         	movff	_freq,_currfreq
  2154  01FDF4  C0DB  F0C9         	movff	_freq+1,_currfreq+1
  2155  01FDF8  0E00               	movlw	0
  2156  01FDFA  BFC9               	btfsc	(_currfreq+1)& (0+255),7,b
  2157  01FDFC  0EFF               	movlw	-1
  2158  01FDFE  6FCA               	movwf	(_currfreq+2)& (0+255),b
  2159  01FE00  6FCB               	movwf	(_currfreq+3)& (0+255),b
  2160                           
  2161                           ;sm.c: 393:             }
  2162  01FE02  EFF4  F0F9         	goto	l3198
  2163  01FE06                     l3384:
  2164                           
  2165                           ; BSR set to: 0
  2166  01FE06  BFAB               	btfsc	(main@dist2+1)& (0+255),7,b
  2167  01FE08  EF0F  F0FF         	goto	u3381
  2168  01FE0C  51AB               	movf	(main@dist2+1)& (0+255),w,b
  2169  01FE0E  E109               	bnz	u3380
  2170  01FE10  0EB5               	movlw	181
  2171  01FE12  5DAA               	subwf	main@dist2& (0+255),w,b
  2172  01FE14  A0D8               	btfss	status,0,c
  2173  01FE16  EF0F  F0FF         	goto	u3381
  2174  01FE1A  EF11  F0FF         	goto	u3380
  2175  01FE1E                     u3381:
  2176  01FE1E  EFF4  F0F9         	goto	l150
  2177  01FE22                     u3380:
  2178  01FE22                     
  2179                           ; BSR set to: 0
  2180                           ;sm.c: 396:                 for(int t=0; t<abs(currfreq-(int)freq)*20.48-500/(freq*10); 
      +                          t++){
  2181  01FE22  0E00               	movlw	0
  2182  01FE24  6FA5               	movwf	(main@t_421+1)& (0+255),b
  2183  01FE26  0E00               	movlw	0
  2184  01FE28  6FA4               	movwf	main@t_421& (0+255),b
  2185  01FE2A  EF7D  F0FF         	goto	l3416
  2186  01FE2E                     l3388:
  2187                           
  2188                           ; BSR set to: 0
  2189                           ;sm.c: 397:                     steptakeL(2);
  2190  01FE2E  0E00               	movlw	0
  2191  01FE30  6E02               	movwf	(steptakeL@dir+1)^0,c
  2192  01FE32  0E02               	movlw	2
  2193  01FE34  6E01               	movwf	steptakeL@dir^0,c
  2194  01FE36  EC75  F0EF         	call	_steptakeL	;wreg free
  2195  01FE3A                     
  2196                           ;sm.c: 398:                     if(PORTAbits.RA4==1){
  2197  01FE3A  A88D               	btfss	141,4,c	;volatile
  2198  01FE3C  EF22  F0FF         	goto	u3391
  2199  01FE40  EF24  F0FF         	goto	u3390
  2200  01FE44                     u3391:
  2201  01FE44  EF7A  F0FF         	goto	l3414
  2202  01FE48                     u3390:
  2203  01FE48                     
  2204                           ;sm.c: 400:                         for(int t=0; t<245; t++){
  2205  01FE48  0E00               	movlw	0
  2206  01FE4A  0100               	movlb	0	; () banked
  2207  01FE4C  6FB9               	movwf	(main@t_422+1)& (0+255),b
  2208  01FE4E  0E00               	movlw	0
  2209  01FE50  6FB8               	movwf	main@t_422& (0+255),b
  2210  01FE52                     l3394:
  2211                           
  2212                           ; BSR set to: 0
  2213  01FE52  BFB9               	btfsc	(main@t_422+1)& (0+255),7,b
  2214  01FE54  EF35  F0FF         	goto	u3401
  2215  01FE58  51B9               	movf	(main@t_422+1)& (0+255),w,b
  2216  01FE5A  E109               	bnz	u3400
  2217  01FE5C  0EF5               	movlw	245
  2218  01FE5E  5DB8               	subwf	main@t_422& (0+255),w,b
  2219  01FE60  A0D8               	btfss	status,0,c
  2220  01FE62  EF35  F0FF         	goto	u3401
  2221  01FE66  EF37  F0FF         	goto	u3400
  2222  01FE6A                     u3401:
  2223  01FE6A  EF39  F0FF         	goto	l3398
  2224  01FE6E                     u3400:
  2225  01FE6E  EF44  F0FF         	goto	l3404
  2226  01FE72                     l3398:
  2227                           
  2228                           ; BSR set to: 0
  2229                           ;sm.c: 401:                             steptakeL(2);
  2230  01FE72  0E00               	movlw	0
  2231  01FE74  6E02               	movwf	(steptakeL@dir+1)^0,c
  2232  01FE76  0E02               	movlw	2
  2233  01FE78  6E01               	movwf	steptakeL@dir^0,c
  2234  01FE7A  EC75  F0EF         	call	_steptakeL	;wreg free
  2235  01FE7E                     
  2236                           ;sm.c: 402:                         }
  2237  01FE7E  0100               	movlb	0	; () banked
  2238  01FE80  4BB8               	infsnz	main@t_422& (0+255),f,b
  2239  01FE82  2BB9               	incf	(main@t_422+1)& (0+255),f,b
  2240  01FE84  EF29  F0FF         	goto	l3394
  2241  01FE88                     l3404:
  2242                           
  2243                           ; BSR set to: 0
  2244                           ;sm.c: 404:                         for(int t=0; t<abs(2000/2-(int)freq*10)*2; t++){
  2245  01FE88  0E00               	movlw	0
  2246  01FE8A  6FA7               	movwf	(main@t_423+1)& (0+255),b
  2247  01FE8C  0E00               	movlw	0
  2248  01FE8E  6FA6               	movwf	main@t_423& (0+255),b
  2249  01FE90  EF53  F0FF         	goto	l3410
  2250  01FE94                     l3406:
  2251                           
  2252                           ; BSR set to: 0
  2253                           ;sm.c: 405:                             steptakeL(2);
  2254  01FE94  0E00               	movlw	0
  2255  01FE96  6E02               	movwf	(steptakeL@dir+1)^0,c
  2256  01FE98  0E02               	movlw	2
  2257  01FE9A  6E01               	movwf	steptakeL@dir^0,c
  2258  01FE9C  EC75  F0EF         	call	_steptakeL	;wreg free
  2259  01FEA0                     
  2260                           ;sm.c: 406:                         }
  2261  01FEA0  0100               	movlb	0	; () banked
  2262  01FEA2  4BA6               	infsnz	main@t_423& (0+255),f,b
  2263  01FEA4  2BA7               	incf	(main@t_423+1)& (0+255),f,b
  2264  01FEA6                     l3410:
  2265                           
  2266                           ; BSR set to: 0
  2267  01FEA6  C0DA  F005         	movff	_freq,___wmul@multiplier
  2268  01FEAA  C0DB  F006         	movff	_freq+1,___wmul@multiplier+1
  2269  01FEAE  0EFF               	movlw	255
  2270  01FEB0  6E08               	movwf	(___wmul@multiplicand+1)^0,c
  2271  01FEB2  0EF6               	movlw	246
  2272  01FEB4  6E07               	movwf	___wmul@multiplicand^0,c
  2273  01FEB6  EC75  F0ED         	call	___wmul	;wreg free
  2274  01FEBA  0EE8               	movlw	232
  2275  01FEBC  2405               	addwf	?___wmul^0,w,c
  2276  01FEBE  6E01               	movwf	abs@a^0,c
  2277  01FEC0  0E03               	movlw	3
  2278  01FEC2  2006               	addwfc	(?___wmul+1)^0,w,c
  2279  01FEC4  6E02               	movwf	(abs@a+1)^0,c
  2280  01FEC6  ECE0  F0ED         	call	_abs	;wreg free
  2281  01FECA  90D8               	bcf	status,0,c
  2282  01FECC  3601               	rlcf	?_abs^0,f,c
  2283  01FECE  3602               	rlcf	(?_abs+1)^0,f,c
  2284  01FED0  5001               	movf	?_abs^0,w,c
  2285  01FED2  0100               	movlb	0	; () banked
  2286  01FED4  5DA6               	subwf	main@t_423& (0+255),w,b
  2287  01FED6  51A7               	movf	(main@t_423+1)& (0+255),w,b
  2288  01FED8  0A80               	xorlw	128
  2289  01FEDA  6F7C               	movwf	??_main& (0+255),b
  2290  01FEDC  5002               	movf	(?_abs+1)^0,w,c
  2291  01FEDE  0A80               	xorlw	128
  2292  01FEE0  597C               	subwfb	??_main& (0+255),w,b
  2293  01FEE2  A0D8               	btfss	status,0,c
  2294  01FEE4  EF76  F0FF         	goto	u3411
  2295  01FEE8  EF78  F0FF         	goto	u3410
  2296  01FEEC                     u3411:
  2297  01FEEC  EF4A  F0FF         	goto	l3406
  2298  01FEF0                     u3410:
  2299  01FEF0  EF37  F0FE         	goto	l3374
  2300  01FEF4                     l3414:
  2301                           
  2302                           ;sm.c: 410:                 }
  2303  01FEF4  0100               	movlb	0	; () banked
  2304  01FEF6  4BA4               	infsnz	main@t_421& (0+255),f,b
  2305  01FEF8  2BA5               	incf	(main@t_421+1)& (0+255),f,b
  2306  01FEFA                     l3416:
  2307                           
  2308                           ; BSR set to: 0
  2309  01FEFA  C0A4  F013         	movff	main@t_421,___xxtofl@val
  2310  01FEFE  C0A5  F014         	movff	main@t_421+1,___xxtofl@val+1
  2311  01FF02  0E00               	movlw	0
  2312  01FF04  BE14               	btfsc	(___xxtofl@val+1)^0,7,c
  2313  01FF06  0EFF               	movlw	-1
  2314  01FF08  6E15               	movwf	(___xxtofl@val+2)^0,c
  2315  01FF0A  6E16               	movwf	(___xxtofl@val+3)^0,c
  2316  01FF0C  0E01               	movlw	1
  2317  01FF0E  EC60  F0F1         	call	___xxtofl
  2318  01FF12  C013  F06C         	movff	?___xxtofl,___flge@ff1
  2319  01FF16  C014  F06D         	movff	?___xxtofl+1,___flge@ff1+1
  2320  01FF1A  C015  F06E         	movff	?___xxtofl+2,___flge@ff1+2
  2321  01FF1E  C016  F06F         	movff	?___xxtofl+3,___flge@ff1+3
  2322  01FF22  0E00               	movlw	0
  2323  01FF24  6E08               	movwf	(___wmul@multiplicand+1)^0,c
  2324  01FF26  0E0A               	movlw	10
  2325  01FF28  6E07               	movwf	___wmul@multiplicand^0,c
  2326  01FF2A  C0DA  F005         	movff	_freq,___wmul@multiplier
  2327  01FF2E  C0DB  F006         	movff	_freq+1,___wmul@multiplier+1
  2328  01FF32  EC75  F0ED         	call	___wmul	;wreg free
  2329  01FF36  C005  F00D         	movff	?___wmul,___awdiv@divisor
  2330  01FF3A  C006  F00E         	movff	?___wmul+1,___awdiv@divisor+1
  2331  01FF3E  0E01               	movlw	1
  2332  01FF40  6E0C               	movwf	(___awdiv@dividend+1)^0,c
  2333  01FF42  0EF4               	movlw	244
  2334  01FF44  6E0B               	movwf	___awdiv@dividend^0,c
  2335  01FF46  EC13  F0EF         	call	___awdiv	;wreg free
  2336  01FF4A  C00B  F013         	movff	?___awdiv,___xxtofl@val
  2337  01FF4E  C00C  F014         	movff	?___awdiv+1,___xxtofl@val+1
  2338  01FF52  0E00               	movlw	0
  2339  01FF54  BE14               	btfsc	(___xxtofl@val+1)^0,7,c
  2340  01FF56  0EFF               	movlw	-1
  2341  01FF58  6E15               	movwf	(___xxtofl@val+2)^0,c
  2342  01FF5A  6E16               	movwf	(___xxtofl@val+3)^0,c
  2343  01FF5C  0E01               	movlw	1
  2344  01FF5E  EC60  F0F1         	call	___xxtofl
  2345  01FF62  C013  F068         	movff	?___xxtofl,___flsub@a
  2346  01FF66  C014  F069         	movff	?___xxtofl+1,___flsub@a+1
  2347  01FF6A  C015  F06A         	movff	?___xxtofl+2,___flsub@a+2
  2348  01FF6E  C016  F06B         	movff	?___xxtofl+3,___flsub@a+3
  2349  01FF72  0E0A               	movlw	10
  2350  01FF74  6E25               	movwf	___flmul@a^0,c
  2351  01FF76  0ED7               	movlw	215
  2352  01FF78  6E26               	movwf	(___flmul@a+1)^0,c
  2353  01FF7A  0EA3               	movlw	163
  2354  01FF7C  6E27               	movwf	(___flmul@a+2)^0,c
  2355  01FF7E  0E41               	movlw	65
  2356  01FF80  6E28               	movwf	(___flmul@a+3)^0,c
  2357  01FF82  0100               	movlb	0	; () banked
  2358  01FF84  51DA               	movf	_freq& (0+255),w,b
  2359  01FF86  5DC8               	subwf	_currfreq& (0+255),w,b
  2360  01FF88  6E01               	movwf	abs@a^0,c
  2361  01FF8A  51DB               	movf	(_freq+1)& (0+255),w,b
  2362  01FF8C  59C9               	subwfb	(_currfreq+1)& (0+255),w,b
  2363  01FF8E  6E02               	movwf	(abs@a+1)^0,c
  2364  01FF90  ECE0  F0ED         	call	_abs	;wreg free
  2365  01FF94  C001  F013         	movff	?_abs,___xxtofl@val
  2366  01FF98  C002  F014         	movff	?_abs+1,___xxtofl@val+1
  2367  01FF9C  0E00               	movlw	0
  2368  01FF9E  BE14               	btfsc	(___xxtofl@val+1)^0,7,c
  2369  01FFA0  0EFF               	movlw	-1
  2370  01FFA2  6E15               	movwf	(___xxtofl@val+2)^0,c
  2371  01FFA4  6E16               	movwf	(___xxtofl@val+3)^0,c
  2372  01FFA6  0E01               	movlw	1
  2373  01FFA8  EC60  F0F1         	call	___xxtofl
  2374  01FFAC  C013  F021         	movff	?___xxtofl,___flmul@b
  2375  01FFB0  C014  F022         	movff	?___xxtofl+1,___flmul@b+1
  2376  01FFB4  C015  F023         	movff	?___xxtofl+2,___flmul@b+2
  2377  01FFB8  C016  F024         	movff	?___xxtofl+3,___flmul@b+3
  2378  01FFBC  EC10  F0F5         	call	___flmul	;wreg free
  2379  01FFC0  C021  F064         	movff	?___flmul,___flsub@b
  2380  01FFC4  C022  F065         	movff	?___flmul+1,___flsub@b+1
  2381  01FFC8  C023  F066         	movff	?___flmul+2,___flsub@b+2
  2382  01FFCC  C024  F067         	movff	?___flmul+3,___flsub@b+3
  2383  01FFD0  EC00  F0EE         	call	___flsub	;wreg free
  2384  01FFD4  C064  F070         	movff	?___flsub,___flge@ff2
  2385  01FFD8  C065  F071         	movff	?___flsub+1,___flge@ff2+1
  2386  01FFDC  C066  F072         	movff	?___flsub+2,___flge@ff2+2
  2387  01FFE0  C067  F073         	movff	?___flsub+3,___flge@ff2+3
  2388  01FFE4  EC59  F0F0         	call	___flge	;wreg free
  2389  01FFE8  0100               	movlb	0	; () banked
  2390  01FFEA  A0D8               	btfss	status,0,c
  2391  01FFEC  EFFA  F0FF         	goto	u3421
  2392  01FFF0  EFFC  F0FF         	goto	u3420
  2393  01FFF4                     u3421:
  2394  01FFF4  EF17  F0FF         	goto	l3388
  2395  01FFF8                     u3420:
  2396  01FFF8  EFF8  F0FE         	goto	l3382
  2397  01FFFC  EF00  F000         	goto	start
  2398  020000                     __end_of_main:
  2399                           	opt callstack 0
  2400                           
  2401 ;; *************** function _steptakeR *****************
  2402 ;; Defined at:
  2403 ;;		line 53 in file "sm.c"
  2404 ;; Parameters:    Size  Location     Type
  2405 ;;  dir             2    0[COMRAM] int 
  2406 ;; Auto vars:     Size  Location     Type
  2407 ;;		None
  2408 ;; Return value:  Size  Location     Type
  2409 ;;                  1    wreg      void 
  2410 ;; Registers used:
  2411 ;;		wreg, status,2, status,0
  2412 ;; Tracked objects:
  2413 ;;		On entry : 0/0
  2414 ;;		On exit  : 0/0
  2415 ;;		Unchanged: 0/0
  2416 ;; Data sizes:     COMRAM   BANK0   BANK1   BANK2   BANK3   BANK4   BANK5   BANK6   BANK7   BANK8   BANK9  BANK10  BANK1
      +1  BANK12  BANK13  BANK14
  2417 ;;      Params:         2       0       0       0       0       0       0       0       0       0       0       0       
      +0       0       0       0
  2418 ;;      Locals:         0       0       0       0       0       0       0       0       0       0       0       0       
      +0       0       0       0
  2419 ;;      Temps:          2       0       0       0       0       0       0       0       0       0       0       0       
      +0       0       0       0
  2420 ;;      Totals:         4       0       0       0       0       0       0       0       0       0       0       0       
      +0       0       0       0
  2421 ;;Total ram usage:        4 bytes
  2422 ;; Hardware stack levels used:    1
  2423 ;; This function calls:
  2424 ;;		Nothing
  2425 ;; This function is called by:
  2426 ;;		_main
  2427 ;; This function uses a non-reentrant model
  2428 ;;
  2429                           
  2430                           	psect	text1
  2431  01DFCE                     __ptext1:
  2432                           	opt callstack 0
  2433  01DFCE                     _steptakeR:
  2434                           	opt callstack 30
  2435  01DFCE                     
  2436                           ;sm.c: 54:     if(dir == 1){
  2437  01DFCE  0401               	decf	steptakeR@dir^0,w,c
  2438  01DFD0  1002               	iorwf	(steptakeR@dir+1)^0,w,c
  2439  01DFD2  A4D8               	btfss	status,2,c
  2440  01DFD4  EFEE  F0EF         	goto	u2701
  2441  01DFD8  EFF0  F0EF         	goto	u2700
  2442  01DFDC                     u2701:
  2443  01DFDC  EF30  F0F0         	goto	l2796
  2444  01DFE0                     u2700:
  2445  01DFE0  EF12  F0F0         	goto	l2794
  2446  01DFE4                     l2768:
  2447                           
  2448                           ; BSR set to: 0
  2449                           ;sm.c: 57:                 PORTB = 0b1100;
  2450  01DFE4  0E0C               	movlw	12
  2451  01DFE6  6E8E               	movwf	142,c	;volatile
  2452  01DFE8                     l2770:
  2453                           
  2454                           ; BSR set to: 0
  2455                           ;sm.c: 58:                 _delay((unsigned long)((2)*(4000000/4000.0)));
  2456  01DFE8  0E03               	movlw	3
  2457  01DFEA  6E03               	movwf	??_steptakeR^0,c
  2458  01DFEC  0E98               	movlw	152
  2459  01DFEE                     u3447:
  2460  01DFEE  2EE8               	decfsz	wreg,f,c
  2461  01DFF0  D7FE               	bra	u3447
  2462  01DFF2  2E03               	decfsz	??_steptakeR^0,f,c
  2463  01DFF4  D7FC               	bra	u3447
  2464  01DFF6                     
  2465                           ;sm.c: 59:                 step++;
  2466  01DFF6  0100               	movlb	0	; () banked
  2467  01DFF8  4BDE               	infsnz	_step& (0+255),f,b
  2468  01DFFA  2BDF               	incf	(_step+1)& (0+255),f,b
  2469                           
  2470                           ;sm.c: 60:                 break;
  2471  01DFFC  EF58  F0F0         	goto	l94
  2472  01E000                     l2774:
  2473                           
  2474                           ; BSR set to: 0
  2475                           ;sm.c: 62:                 PORTB = 0b1001;
  2476  01E000  0E09               	movlw	9
  2477  01E002  6E8E               	movwf	142,c	;volatile
  2478  01E004  EFF4  F0EF         	goto	l2770
  2479  01E008                     l2780:
  2480                           
  2481                           ; BSR set to: 0
  2482                           ;sm.c: 67:                 PORTB = 0b0011;
  2483  01E008  0E03               	movlw	3
  2484  01E00A  6E8E               	movwf	142,c	;volatile
  2485  01E00C  EFF4  F0EF         	goto	l2770
  2486  01E010                     l2786:
  2487                           
  2488                           ; BSR set to: 0
  2489                           ;sm.c: 72:                 PORTB = 0b0110;
  2490  01E010  0E06               	movlw	6
  2491  01E012  6E8E               	movwf	142,c	;volatile
  2492  01E014  EFF4  F0EF         	goto	l2770
  2493  01E018                     l2792:
  2494                           
  2495                           ; BSR set to: 0
  2496                           ;sm.c: 77:                 step = 1;
  2497  01E018  0E00               	movlw	0
  2498  01E01A  6FDF               	movwf	(_step+1)& (0+255),b
  2499  01E01C  0E01               	movlw	1
  2500  01E01E  6FDE               	movwf	_step& (0+255),b
  2501                           
  2502                           ;sm.c: 78:         }
  2503  01E020  EF58  F0F0         	goto	l94
  2504  01E024                     l2794:
  2505  01E024  0100               	movlb	0	; () banked
  2506  01E026  51DE               	movf	_step& (0+255),w,b
  2507  01E028  6E03               	movwf	??_steptakeR^0,c
  2508  01E02A  6A04               	clrf	(??_steptakeR+1)^0,c
  2509                           
  2510                           ; Switch on 2 bytes has been partitioned into a top level switch of size 1, and 1 sub-sw
      +                          itches
  2511                           ; Switch size 1, requested type "simple"
  2512                           ; Number of cases is 1, Range of values is 0 to 0
  2513                           ; switch strategies available:
  2514                           ; Name         Instructions Cycles
  2515                           ; simple_byte            4     3 (average)
  2516                           ;	Chosen strategy is simple_byte
  2517  01E02C  5004               	movf	(??_steptakeR+1)^0,w,c
  2518  01E02E  0A00               	xorlw	0	; case 0
  2519  01E030  B4D8               	btfsc	status,2,c
  2520  01E032  EF1D  F0F0         	goto	l3540
  2521  01E036  EF0C  F0F0         	goto	l2792
  2522  01E03A                     l3540:
  2523                           
  2524                           ; BSR set to: 0
  2525                           ; Switch size 1, requested type "simple"
  2526                           ; Number of cases is 4, Range of values is 1 to 4
  2527                           ; switch strategies available:
  2528                           ; Name         Instructions Cycles
  2529                           ; simple_byte           13     7 (average)
  2530                           ;	Chosen strategy is simple_byte
  2531  01E03A  5003               	movf	??_steptakeR^0,w,c
  2532  01E03C  0A01               	xorlw	1	; case 1
  2533  01E03E  B4D8               	btfsc	status,2,c
  2534  01E040  EFF2  F0EF         	goto	l2768
  2535  01E044  0A03               	xorlw	3	; case 2
  2536  01E046  B4D8               	btfsc	status,2,c
  2537  01E048  EF00  F0F0         	goto	l2774
  2538  01E04C  0A01               	xorlw	1	; case 3
  2539  01E04E  B4D8               	btfsc	status,2,c
  2540  01E050  EF04  F0F0         	goto	l2780
  2541  01E054  0A07               	xorlw	7	; case 4
  2542  01E056  B4D8               	btfsc	status,2,c
  2543  01E058  EF08  F0F0         	goto	l2786
  2544  01E05C  EF0C  F0F0         	goto	l2792
  2545  01E060                     l2796:
  2546  01E060  0E02               	movlw	2
  2547  01E062  1801               	xorwf	steptakeR@dir^0,w,c
  2548  01E064  1002               	iorwf	(steptakeR@dir+1)^0,w,c
  2549  01E066  A4D8               	btfss	status,2,c
  2550  01E068  EF38  F0F0         	goto	u2711
  2551  01E06C  EF3A  F0F0         	goto	u2710
  2552  01E070                     u2711:
  2553  01E070  EF58  F0F0         	goto	l94
  2554  01E074                     u2710:
  2555  01E074  0100               	movlb	0	; () banked
  2556  01E076  51DE               	movf	_step& (0+255),w,b
  2557  01E078  6E03               	movwf	??_steptakeR^0,c
  2558  01E07A  6A04               	clrf	(??_steptakeR+1)^0,c
  2559                           
  2560                           ; Switch on 2 bytes has been partitioned into a top level switch of size 1, and 1 sub-sw
      +                          itches
  2561                           ; Switch size 1, requested type "simple"
  2562                           ; Number of cases is 1, Range of values is 0 to 0
  2563                           ; switch strategies available:
  2564                           ; Name         Instructions Cycles
  2565                           ; simple_byte            4     3 (average)
  2566                           ;	Chosen strategy is simple_byte
  2567  01E07C  5004               	movf	(??_steptakeR+1)^0,w,c
  2568  01E07E  0A00               	xorlw	0	; case 0
  2569  01E080  B4D8               	btfsc	status,2,c
  2570  01E082  EF45  F0F0         	goto	l3542
  2571  01E086  EF0C  F0F0         	goto	l2792
  2572  01E08A                     l3542:
  2573                           
  2574                           ; BSR set to: 0
  2575                           ; Switch size 1, requested type "simple"
  2576                           ; Number of cases is 4, Range of values is 1 to 4
  2577                           ; switch strategies available:
  2578                           ; Name         Instructions Cycles
  2579                           ; simple_byte           13     7 (average)
  2580                           ;	Chosen strategy is simple_byte
  2581  01E08A  5003               	movf	??_steptakeR^0,w,c
  2582  01E08C  0A01               	xorlw	1	; case 1
  2583  01E08E  B4D8               	btfsc	status,2,c
  2584  01E090  EFF2  F0EF         	goto	l2768
  2585  01E094  0A03               	xorlw	3	; case 2
  2586  01E096  B4D8               	btfsc	status,2,c
  2587  01E098  EF08  F0F0         	goto	l2786
  2588  01E09C  0A01               	xorlw	1	; case 3
  2589  01E09E  B4D8               	btfsc	status,2,c
  2590  01E0A0  EF04  F0F0         	goto	l2780
  2591  01E0A4  0A07               	xorlw	7	; case 4
  2592  01E0A6  B4D8               	btfsc	status,2,c
  2593  01E0A8  EF00  F0F0         	goto	l2774
  2594  01E0AC  EF0C  F0F0         	goto	l2792
  2595  01E0B0                     l94:
  2596  01E0B0  0012               	return		;funcret
  2597  01E0B2                     __end_of_steptakeR:
  2598                           	opt callstack 0
  2599                           
  2600 ;; *************** function _steptakeL *****************
  2601 ;; Defined at:
  2602 ;;		line 116 in file "sm.c"
  2603 ;; Parameters:    Size  Location     Type
  2604 ;;  dir             2    0[COMRAM] int 
  2605 ;; Auto vars:     Size  Location     Type
  2606 ;;		None
  2607 ;; Return value:  Size  Location     Type
  2608 ;;                  1    wreg      void 
  2609 ;; Registers used:
  2610 ;;		wreg, status,2, status,0
  2611 ;; Tracked objects:
  2612 ;;		On entry : 0/0
  2613 ;;		On exit  : 0/0
  2614 ;;		Unchanged: 0/0
  2615 ;; Data sizes:     COMRAM   BANK0   BANK1   BANK2   BANK3   BANK4   BANK5   BANK6   BANK7   BANK8   BANK9  BANK10  BANK1
      +1  BANK12  BANK13  BANK14
  2616 ;;      Params:         2       0       0       0       0       0       0       0       0       0       0       0       
      +0       0       0       0
  2617 ;;      Locals:         0       0       0       0       0       0       0       0       0       0       0       0       
      +0       0       0       0
  2618 ;;      Temps:          2       0       0       0       0       0       0       0       0       0       0       0       
      +0       0       0       0
  2619 ;;      Totals:         4       0       0       0       0       0       0       0       0       0       0       0       
      +0       0       0       0
  2620 ;;Total ram usage:        4 bytes
  2621 ;; Hardware stack levels used:    1
  2622 ;; This function calls:
  2623 ;;		Nothing
  2624 ;; This function is called by:
  2625 ;;		_main
  2626 ;; This function uses a non-reentrant model
  2627 ;;
  2628                           
  2629                           	psect	text2
  2630  01DEEA                     __ptext2:
  2631                           	opt callstack 0
  2632  01DEEA                     _steptakeL:
  2633                           	opt callstack 30
  2634  01DEEA                     
  2635                           ;sm.c: 117:     if(dir == 1){
  2636  01DEEA  0401               	decf	steptakeL@dir^0,w,c
  2637  01DEEC  1002               	iorwf	(steptakeL@dir+1)^0,w,c
  2638  01DEEE  A4D8               	btfss	status,2,c
  2639  01DEF0  EF7C  F0EF         	goto	u2721
  2640  01DEF4  EF7E  F0EF         	goto	u2720
  2641  01DEF8                     u2721:
  2642  01DEF8  EFBE  F0EF         	goto	l2872
  2643  01DEFC                     u2720:
  2644  01DEFC  EFA0  F0EF         	goto	l2870
  2645  01DF00                     l2844:
  2646                           
  2647                           ; BSR set to: 0
  2648                           ;sm.c: 120:                 PORTD = 0b1100;
  2649  01DF00  0E0C               	movlw	12
  2650  01DF02  6E90               	movwf	144,c	;volatile
  2651  01DF04                     l2846:
  2652                           
  2653                           ; BSR set to: 0
  2654                           ;sm.c: 121:                 _delay((unsigned long)((2)*(4000000/4000.0)));
  2655  01DF04  0E03               	movlw	3
  2656  01DF06  6E03               	movwf	??_steptakeL^0,c
  2657  01DF08  0E98               	movlw	152
  2658  01DF0A                     u3457:
  2659  01DF0A  2EE8               	decfsz	wreg,f,c
  2660  01DF0C  D7FE               	bra	u3457
  2661  01DF0E  2E03               	decfsz	??_steptakeL^0,f,c
  2662  01DF10  D7FC               	bra	u3457
  2663  01DF12                     
  2664                           ;sm.c: 122:                 stepf++;
  2665  01DF12  0100               	movlb	0	; () banked
  2666  01DF14  4BDC               	infsnz	_stepf& (0+255),f,b
  2667  01DF16  2BDD               	incf	(_stepf+1)& (0+255),f,b
  2668                           
  2669                           ;sm.c: 123:                 break;
  2670  01DF18  EFE6  F0EF         	goto	l114
  2671  01DF1C                     l2850:
  2672                           
  2673                           ; BSR set to: 0
  2674                           ;sm.c: 125:                 PORTD = 0b1001;
  2675  01DF1C  0E09               	movlw	9
  2676  01DF1E  6E90               	movwf	144,c	;volatile
  2677  01DF20  EF82  F0EF         	goto	l2846
  2678  01DF24                     l2856:
  2679                           
  2680                           ; BSR set to: 0
  2681                           ;sm.c: 130:                 PORTD = 0b0011;
  2682  01DF24  0E03               	movlw	3
  2683  01DF26  6E90               	movwf	144,c	;volatile
  2684  01DF28  EF82  F0EF         	goto	l2846
  2685  01DF2C                     l2862:
  2686                           
  2687                           ; BSR set to: 0
  2688                           ;sm.c: 135:                 PORTD = 0b0110;
  2689  01DF2C  0E06               	movlw	6
  2690  01DF2E  6E90               	movwf	144,c	;volatile
  2691  01DF30  EF82  F0EF         	goto	l2846
  2692  01DF34                     l2868:
  2693                           
  2694                           ; BSR set to: 0
  2695                           ;sm.c: 140:                 stepf = 1;
  2696  01DF34  0E00               	movlw	0
  2697  01DF36  6FDD               	movwf	(_stepf+1)& (0+255),b
  2698  01DF38  0E01               	movlw	1
  2699  01DF3A  6FDC               	movwf	_stepf& (0+255),b
  2700                           
  2701                           ;sm.c: 141:         }
  2702  01DF3C  EFE6  F0EF         	goto	l114
  2703  01DF40                     l2870:
  2704  01DF40  0100               	movlb	0	; () banked
  2705  01DF42  51DC               	movf	_stepf& (0+255),w,b
  2706  01DF44  6E03               	movwf	??_steptakeL^0,c
  2707  01DF46  6A04               	clrf	(??_steptakeL+1)^0,c
  2708                           
  2709                           ; Switch on 2 bytes has been partitioned into a top level switch of size 1, and 1 sub-sw
      +                          itches
  2710                           ; Switch size 1, requested type "simple"
  2711                           ; Number of cases is 1, Range of values is 0 to 0
  2712                           ; switch strategies available:
  2713                           ; Name         Instructions Cycles
  2714                           ; simple_byte            4     3 (average)
  2715                           ;	Chosen strategy is simple_byte
  2716  01DF48  5004               	movf	(??_steptakeL+1)^0,w,c
  2717  01DF4A  0A00               	xorlw	0	; case 0
  2718  01DF4C  B4D8               	btfsc	status,2,c
  2719  01DF4E  EFAB  F0EF         	goto	l3544
  2720  01DF52  EF9A  F0EF         	goto	l2868
  2721  01DF56                     l3544:
  2722                           
  2723                           ; BSR set to: 0
  2724                           ; Switch size 1, requested type "simple"
  2725                           ; Number of cases is 4, Range of values is 1 to 4
  2726                           ; switch strategies available:
  2727                           ; Name         Instructions Cycles
  2728                           ; simple_byte           13     7 (average)
  2729                           ;	Chosen strategy is simple_byte
  2730  01DF56  5003               	movf	??_steptakeL^0,w,c
  2731  01DF58  0A01               	xorlw	1	; case 1
  2732  01DF5A  B4D8               	btfsc	status,2,c
  2733  01DF5C  EF80  F0EF         	goto	l2844
  2734  01DF60  0A03               	xorlw	3	; case 2
  2735  01DF62  B4D8               	btfsc	status,2,c
  2736  01DF64  EF8E  F0EF         	goto	l2850
  2737  01DF68  0A01               	xorlw	1	; case 3
  2738  01DF6A  B4D8               	btfsc	status,2,c
  2739  01DF6C  EF92  F0EF         	goto	l2856
  2740  01DF70  0A07               	xorlw	7	; case 4
  2741  01DF72  B4D8               	btfsc	status,2,c
  2742  01DF74  EF96  F0EF         	goto	l2862
  2743  01DF78  EF9A  F0EF         	goto	l2868
  2744  01DF7C                     l2872:
  2745  01DF7C  0E02               	movlw	2
  2746  01DF7E  1801               	xorwf	steptakeL@dir^0,w,c
  2747  01DF80  1002               	iorwf	(steptakeL@dir+1)^0,w,c
  2748  01DF82  A4D8               	btfss	status,2,c
  2749  01DF84  EFC6  F0EF         	goto	u2731
  2750  01DF88  EFC8  F0EF         	goto	u2730
  2751  01DF8C                     u2731:
  2752  01DF8C  EFE6  F0EF         	goto	l114
  2753  01DF90                     u2730:
  2754  01DF90  0100               	movlb	0	; () banked
  2755  01DF92  51DC               	movf	_stepf& (0+255),w,b
  2756  01DF94  6E03               	movwf	??_steptakeL^0,c
  2757  01DF96  6A04               	clrf	(??_steptakeL+1)^0,c
  2758                           
  2759                           ; Switch on 2 bytes has been partitioned into a top level switch of size 1, and 1 sub-sw
      +                          itches
  2760                           ; Switch size 1, requested type "simple"
  2761                           ; Number of cases is 1, Range of values is 0 to 0
  2762                           ; switch strategies available:
  2763                           ; Name         Instructions Cycles
  2764                           ; simple_byte            4     3 (average)
  2765                           ;	Chosen strategy is simple_byte
  2766  01DF98  5004               	movf	(??_steptakeL+1)^0,w,c
  2767  01DF9A  0A00               	xorlw	0	; case 0
  2768  01DF9C  B4D8               	btfsc	status,2,c
  2769  01DF9E  EFD3  F0EF         	goto	l3546
  2770  01DFA2  EF9A  F0EF         	goto	l2868
  2771  01DFA6                     l3546:
  2772                           
  2773                           ; BSR set to: 0
  2774                           ; Switch size 1, requested type "simple"
  2775                           ; Number of cases is 4, Range of values is 1 to 4
  2776                           ; switch strategies available:
  2777                           ; Name         Instructions Cycles
  2778                           ; simple_byte           13     7 (average)
  2779                           ;	Chosen strategy is simple_byte
  2780  01DFA6  5003               	movf	??_steptakeL^0,w,c
  2781  01DFA8  0A01               	xorlw	1	; case 1
  2782  01DFAA  B4D8               	btfsc	status,2,c
  2783  01DFAC  EF80  F0EF         	goto	l2844
  2784  01DFB0  0A03               	xorlw	3	; case 2
  2785  01DFB2  B4D8               	btfsc	status,2,c
  2786  01DFB4  EF96  F0EF         	goto	l2862
  2787  01DFB8  0A01               	xorlw	1	; case 3
  2788  01DFBA  B4D8               	btfsc	status,2,c
  2789  01DFBC  EF92  F0EF         	goto	l2856
  2790  01DFC0  0A07               	xorlw	7	; case 4
  2791  01DFC2  B4D8               	btfsc	status,2,c
  2792  01DFC4  EF8E  F0EF         	goto	l2850
  2793  01DFC8  EF9A  F0EF         	goto	l2868
  2794  01DFCC                     l114:
  2795  01DFCC  0012               	return		;funcret
  2796  01DFCE                     __end_of_steptakeL:
  2797                           	opt callstack 0
  2798                           
  2799 ;; *************** function _ccp_init *****************
  2800 ;; Defined at:
  2801 ;;		line 174 in file "sm.c"
  2802 ;; Parameters:    Size  Location     Type
  2803 ;;		None
  2804 ;; Auto vars:     Size  Location     Type
  2805 ;;		None
  2806 ;; Return value:  Size  Location     Type
  2807 ;;                  1    wreg      void 
  2808 ;; Registers used:
  2809 ;;		wreg, status,2
  2810 ;; Tracked objects:
  2811 ;;		On entry : 0/0
  2812 ;;		On exit  : 0/0
  2813 ;;		Unchanged: 0/0
  2814 ;; Data sizes:     COMRAM   BANK0   BANK1   BANK2   BANK3   BANK4   BANK5   BANK6   BANK7   BANK8   BANK9  BANK10  BANK1
      +1  BANK12  BANK13  BANK14
  2815 ;;      Params:         0       0       0       0       0       0       0       0       0       0       0       0       
      +0       0       0       0
  2816 ;;      Locals:         0       0       0       0       0       0       0       0       0       0       0       0       
      +0       0       0       0
  2817 ;;      Temps:          0       0       0       0       0       0       0       0       0       0       0       0       
      +0       0       0       0
  2818 ;;      Totals:         0       0       0       0       0       0       0       0       0       0       0       0       
      +0       0       0       0
  2819 ;;Total ram usage:        0 bytes
  2820 ;; Hardware stack levels used:    1
  2821 ;; This function calls:
  2822 ;;		Nothing
  2823 ;; This function is called by:
  2824 ;;		_main
  2825 ;; This function uses a non-reentrant model
  2826 ;;
  2827                           
  2828                           	psect	text3
  2829  01DB46                     __ptext3:
  2830                           	opt callstack 0
  2831  01DB46                     _ccp_init:
  2832                           	opt callstack 30
  2833  01DB46                     
  2834                           ;sm.c: 176:     TMR1 = 0;
  2835  01DB46  0E00               	movlw	0
  2836  01DB48  6ECE               	movwf	206,c	;volatile
  2837  01DB4A  0E00               	movlw	0
  2838  01DB4C  6ECD               	movwf	205,c	;volatile
  2839  01DB4E                     
  2840                           ;sm.c: 177:     T1CKPS0 = 1;
  2841  01DB4E  88CF               	bsf	4047,4,c	;volatile
  2842  01DB50                     
  2843                           ;sm.c: 178:     T1CKPS1 = 1;
  2844  01DB50  8ACF               	bsf	4047,5,c	;volatile
  2845  01DB52                     
  2846                           ;sm.c: 179:     T1CONbits.NOT_SYNC = 0;
  2847  01DB52  94CF               	bcf	207,2,c	;volatile
  2848  01DB54                     
  2849                           ;sm.c: 180:     T1CONbits.RD16 = 1;
  2850  01DB54  82CF               	bsf	207,1,c	;volatile
  2851                           
  2852                           ;sm.c: 181:     TMR1CLKbits.CS=1;
  2853  01DB56  50D2               	movf	210,w,c	;volatile
  2854  01DB58  0BF0               	andlw	-16
  2855  01DB5A  0901               	iorlw	1
  2856  01DB5C  6ED2               	movwf	210,c	;volatile
  2857  01DB5E                     
  2858                           ;sm.c: 182:     TMR1IF=0;
  2859  01DB5E  010E               	movlb	14	; () banked
  2860  01DB60  91CE               	bcf	206,0,b	;volatile
  2861  01DB62                     
  2862                           ; BSR set to: 14
  2863                           ;sm.c: 183:     TMR1ON = 1;
  2864  01DB62  80CF               	bsf	4047,0,c	;volatile
  2865                           
  2866                           ;sm.c: 186:     CCP1PPS=0x12;
  2867  01DB64  0E12               	movlw	18
  2868  01DB66  6FAF               	movwf	175,b	;volatile
  2869                           
  2870                           ;sm.c: 187:     CCPR1=0x00;
  2871  01DB68  0E00               	movlw	0
  2872  01DB6A  6EAB               	movwf	171,c	;volatile
  2873  01DB6C  0E00               	movlw	0
  2874  01DB6E  6EAA               	movwf	170,c	;volatile
  2875                           
  2876                           ;sm.c: 188:     CCP1CONbits.MODE=0x05;
  2877  01DB70  50AC               	movf	172,w,c	;volatile
  2878  01DB72  0BF0               	andlw	-16
  2879  01DB74  0905               	iorlw	5
  2880  01DB76  6EAC               	movwf	172,c	;volatile
  2881  01DB78                     
  2882                           ; BSR set to: 14
  2883                           ;sm.c: 189:     CCP1CONbits.EN = 1;
  2884  01DB78  8EAC               	bsf	172,7,c	;volatile
  2885  01DB7A                     
  2886                           ; BSR set to: 14
  2887                           ;sm.c: 193:     CCP1IE = 1;
  2888  01DB7A  81C8               	bsf	200,0,b	;volatile
  2889  01DB7C                     
  2890                           ; BSR set to: 14
  2891                           ;sm.c: 194:     PEIE = 1;
  2892  01DB7C  8CF2               	bsf	4082,6,c	;volatile
  2893  01DB7E                     
  2894                           ; BSR set to: 14
  2895                           ;sm.c: 195:     GIE = 1;
  2896  01DB7E  8EF2               	bsf	4082,7,c	;volatile
  2897  01DB80                     
  2898                           ; BSR set to: 14
  2899  01DB80  0012               	return		;funcret
  2900  01DB82                     __end_of_ccp_init:
  2901                           	opt callstack 0
  2902                           
  2903 ;; *************** function _ccpNum0 *****************
  2904 ;; Defined at:
  2905 ;;		line 215 in file "sm.c"
  2906 ;; Parameters:    Size  Location     Type
  2907 ;;		None
  2908 ;; Auto vars:     Size  Location     Type
  2909 ;;  period          4   18[BANK0 ] unsigned long 
  2910 ;;  q               2   26[BANK0 ] int 
  2911 ;; Return value:  Size  Location     Type
  2912 ;;                  4   14[BANK0 ] float 
  2913 ;; Registers used:
  2914 ;;		wreg, status,2, status,0, prodl, prodh, cstack
  2915 ;; Tracked objects:
  2916 ;;		On entry : 0/0
  2917 ;;		On exit  : 0/0
  2918 ;;		Unchanged: 0/0
  2919 ;; Data sizes:     COMRAM   BANK0   BANK1   BANK2   BANK3   BANK4   BANK5   BANK6   BANK7   BANK8   BANK9  BANK10  BANK1
      +1  BANK12  BANK13  BANK14
  2920 ;;      Params:         0       4       0       0       0       0       0       0       0       0       0       0       
      +0       0       0       0
  2921 ;;      Locals:         0      10       0       0       0       0       0       0       0       0       0       0       
      +0       0       0       0
  2922 ;;      Temps:          0       0       0       0       0       0       0       0       0       0       0       0       
      +0       0       0       0
  2923 ;;      Totals:         0      14       0       0       0       0       0       0       0       0       0       0       
      +0       0       0       0
  2924 ;;Total ram usage:       14 bytes
  2925 ;; Hardware stack levels used:    1
  2926 ;; Hardware stack levels required when called:    1
  2927 ;; This function calls:
  2928 ;;		___fladd
  2929 ;;		___fldiv
  2930 ;;		___flmul
  2931 ;;		___fltol
  2932 ;;		___xxtofl
  2933 ;; This function is called by:
  2934 ;;		_main
  2935 ;; This function uses a non-reentrant model
  2936 ;;
  2937                           
  2938                           	psect	text4
  2939  01E474                     __ptext4:
  2940                           	opt callstack 0
  2941  01E474                     _ccpNum0:
  2942                           	opt callstack 29
  2943  01E474                     
  2944                           ;sm.c: 216:     for(int q=0; q<5; q++){
  2945  01E474  0E00               	movlw	0
  2946  01E476  0100               	movlb	0	; () banked
  2947  01E478  6F7B               	movwf	(ccpNum0@q+1)& (0+255),b
  2948  01E47A  0E00               	movlw	0
  2949  01E47C  6F7A               	movwf	ccpNum0@q& (0+255),b
  2950  01E47E                     l128:
  2951  01E47E  010E               	movlb	14	; () banked
  2952  01E480  A1D0               	btfss	208,0,b	;volatile
  2953  01E482  EF45  F0F2         	goto	u2741
  2954  01E486  EF47  F0F2         	goto	u2740
  2955  01E48A                     u2741:
  2956  01E48A  EF3F  F0F2         	goto	l128
  2957  01E48E                     u2740:
  2958  01E48E                     
  2959                           ; BSR set to: 14
  2960                           ;sm.c: 219:         PIR6bits.CCP1IF=0;
  2961  01E48E  91D0               	bcf	208,0,b	;volatile
  2962  01E490                     
  2963                           ; BSR set to: 14
  2964                           ;sm.c: 220:         f=CCPR1;
  2965  01E490  CFAA F0C4          	movff	4010,_f	;volatile
  2966  01E494  CFAB F0C5          	movff	4011,_f+1	;volatile
  2967  01E498  0100               	movlb	0	; () banked
  2968  01E49A  6BC6               	clrf	(_f+2)& (0+255),b
  2969  01E49C  6BC7               	clrf	(_f+3)& (0+255),b
  2970  01E49E                     
  2971                           ; BSR set to: 0
  2972                           ;sm.c: 222:         if(CCPR1>60000){
  2973  01E49E  0E61               	movlw	97
  2974  01E4A0  5CAA               	subwf	170,w,c	;volatile
  2975  01E4A2  0EEA               	movlw	234
  2976  01E4A4  58AB               	subwfb	171,w,c	;volatile
  2977  01E4A6  A0D8               	btfss	status,0,c
  2978  01E4A8  EF58  F0F2         	goto	u2751
  2979  01E4AC  EF5A  F0F2         	goto	u2750
  2980  01E4B0                     u2751:
  2981  01E4B0  EF77  F0F2         	goto	l133
  2982  01E4B4                     u2750:
  2983  01E4B4                     
  2984                           ; BSR set to: 0
  2985                           ;sm.c: 223:             return f3=0;
  2986  01E4B4  0E00               	movlw	0
  2987  01E4B6  6FBC               	movwf	_f3& (0+255),b
  2988  01E4B8  0E00               	movlw	0
  2989  01E4BA  6FBD               	movwf	(_f3+1)& (0+255),b
  2990  01E4BC  0E00               	movlw	0
  2991  01E4BE  6FBE               	movwf	(_f3+2)& (0+255),b
  2992  01E4C0  0E00               	movlw	0
  2993  01E4C2  6FBF               	movwf	(_f3+3)& (0+255),b
  2994  01E4C4  C0BC  F013         	movff	_f3,___xxtofl@val
  2995  01E4C8  C0BD  F014         	movff	_f3+1,___xxtofl@val+1
  2996  01E4CC  C0BE  F015         	movff	_f3+2,___xxtofl@val+2
  2997  01E4D0  C0BF  F016         	movff	_f3+3,___xxtofl@val+3
  2998  01E4D4  0E00               	movlw	0
  2999  01E4D6  EC60  F0F1         	call	___xxtofl
  3000  01E4DA  C013  F06E         	movff	?___xxtofl,?_ccpNum0
  3001  01E4DE  C014  F06F         	movff	?___xxtofl+1,?_ccpNum0+1
  3002  01E4E2  C015  F070         	movff	?___xxtofl+2,?_ccpNum0+2
  3003  01E4E6  C016  F071         	movff	?___xxtofl+3,?_ccpNum0+3
  3004  01E4EA  EF42  F0F3         	goto	l132
  3005  01E4EE                     l133:
  3006  01E4EE  010E               	movlb	14	; () banked
  3007  01E4F0  A1D0               	btfss	208,0,b	;volatile
  3008  01E4F2  EF7D  F0F2         	goto	u2761
  3009  01E4F6  EF7F  F0F2         	goto	u2760
  3010  01E4FA                     u2761:
  3011  01E4FA  EF77  F0F2         	goto	l133
  3012  01E4FE                     u2760:
  3013  01E4FE                     
  3014                           ; BSR set to: 14
  3015                           ;sm.c: 227:         PIR6bits.CCP1IF = 0;
  3016  01E4FE  91D0               	bcf	208,0,b	;volatile
  3017  01E500                     
  3018                           ; BSR set to: 14
  3019                           ;sm.c: 228:         f2=CCPR1;
  3020  01E500  CFAA F0C0          	movff	4010,_f2	;volatile
  3021  01E504  CFAB F0C1          	movff	4011,_f2+1	;volatile
  3022  01E508  0100               	movlb	0	; () banked
  3023  01E50A  6BC2               	clrf	(_f2+2)& (0+255),b
  3024  01E50C  6BC3               	clrf	(_f2+3)& (0+255),b
  3025  01E50E                     
  3026                           ; BSR set to: 0
  3027                           ;sm.c: 230:         if (f < f2){
  3028  01E50E  51C0               	movf	_f2& (0+255),w,b
  3029  01E510  5DC4               	subwf	_f& (0+255),w,b
  3030  01E512  51C1               	movf	(_f2+1)& (0+255),w,b
  3031  01E514  59C5               	subwfb	(_f+1)& (0+255),w,b
  3032  01E516  51C2               	movf	(_f2+2)& (0+255),w,b
  3033  01E518  59C6               	subwfb	(_f+2)& (0+255),w,b
  3034  01E51A  51C3               	movf	(_f2+3)& (0+255),w,b
  3035  01E51C  59C7               	subwfb	(_f+3)& (0+255),w,b
  3036  01E51E  B0D8               	btfsc	status,0,c
  3037  01E520  EF94  F0F2         	goto	u2771
  3038  01E524  EF96  F0F2         	goto	u2770
  3039  01E528                     u2771:
  3040  01E528  EF1A  F0F3         	goto	l2962
  3041  01E52C                     u2770:
  3042  01E52C                     
  3043                           ; BSR set to: 0
  3044                           ;sm.c: 231:           unsigned long period = f2-f;
  3045  01E52C  51C4               	movf	_f& (0+255),w,b
  3046  01E52E  5DC0               	subwf	_f2& (0+255),w,b
  3047  01E530  6F72               	movwf	ccpNum0@period& (0+255),b
  3048  01E532  51C5               	movf	(_f+1)& (0+255),w,b
  3049  01E534  59C1               	subwfb	(_f2+1)& (0+255),w,b
  3050  01E536  6F73               	movwf	(ccpNum0@period+1)& (0+255),b
  3051  01E538  51C6               	movf	(_f+2)& (0+255),w,b
  3052  01E53A  59C2               	subwfb	(_f2+2)& (0+255),w,b
  3053  01E53C  6F74               	movwf	(ccpNum0@period+2)& (0+255),b
  3054  01E53E  51C7               	movf	(_f+3)& (0+255),w,b
  3055  01E540  59C3               	subwfb	(_f2+3)& (0+255),w,b
  3056  01E542  6F75               	movwf	(ccpNum0@period+3)& (0+255),b
  3057  01E544                     
  3058                           ; BSR set to: 0
  3059                           ;sm.c: 232:           f3=((((float)4000000/4)/((float)period*8))+f3)/2;
  3060  01E544  C0BC  F013         	movff	_f3,___xxtofl@val
  3061  01E548  C0BD  F014         	movff	_f3+1,___xxtofl@val+1
  3062  01E54C  C0BE  F015         	movff	_f3+2,___xxtofl@val+2
  3063  01E550  C0BF  F016         	movff	_f3+3,___xxtofl@val+3
  3064  01E554  0E00               	movlw	0
  3065  01E556  EC60  F0F1         	call	___xxtofl
  3066  01E55A  C013  F057         	movff	?___xxtofl,___fladd@a
  3067  01E55E  C014  F058         	movff	?___xxtofl+1,___fladd@a+1
  3068  01E562  C015  F059         	movff	?___xxtofl+2,___fladd@a+2
  3069  01E566  C016  F05A         	movff	?___xxtofl+3,___fladd@a+3
  3070  01E56A  0E00               	movlw	0
  3071  01E56C  6E25               	movwf	___flmul@a^0,c
  3072  01E56E  0E00               	movlw	0
  3073  01E570  6E26               	movwf	(___flmul@a+1)^0,c
  3074  01E572  0E00               	movlw	0
  3075  01E574  6E27               	movwf	(___flmul@a+2)^0,c
  3076  01E576  0E41               	movlw	65
  3077  01E578  6E28               	movwf	(___flmul@a+3)^0,c
  3078  01E57A  C072  F013         	movff	ccpNum0@period,___xxtofl@val
  3079  01E57E  C073  F014         	movff	ccpNum0@period+1,___xxtofl@val+1
  3080  01E582  C074  F015         	movff	ccpNum0@period+2,___xxtofl@val+2
  3081  01E586  C075  F016         	movff	ccpNum0@period+3,___xxtofl@val+3
  3082  01E58A  0E00               	movlw	0
  3083  01E58C  EC60  F0F1         	call	___xxtofl
  3084  01E590  C013  F021         	movff	?___xxtofl,___flmul@b
  3085  01E594  C014  F022         	movff	?___xxtofl+1,___flmul@b+1
  3086  01E598  C015  F023         	movff	?___xxtofl+2,___flmul@b+2
  3087  01E59C  C016  F024         	movff	?___xxtofl+3,___flmul@b+3
  3088  01E5A0  EC10  F0F5         	call	___flmul	;wreg free
  3089  01E5A4  C021  F03E         	movff	?___flmul,___fldiv@a
  3090  01E5A8  C022  F03F         	movff	?___flmul+1,___fldiv@a+1
  3091  01E5AC  C023  F040         	movff	?___flmul+2,___fldiv@a+2
  3092  01E5B0  C024  F041         	movff	?___flmul+3,___fldiv@a+3
  3093  01E5B4  0E00               	movlw	0
  3094  01E5B6  6E3A               	movwf	___fldiv@b^0,c
  3095  01E5B8  0E24               	movlw	36
  3096  01E5BA  6E3B               	movwf	(___fldiv@b+1)^0,c
  3097  01E5BC  0E74               	movlw	116
  3098  01E5BE  6E3C               	movwf	(___fldiv@b+2)^0,c
  3099  01E5C0  0E49               	movlw	73
  3100  01E5C2  6E3D               	movwf	(___fldiv@b+3)^0,c
  3101  01E5C4  EC43  F0F3         	call	___fldiv	;wreg free
  3102  01E5C8  C03A  F053         	movff	?___fldiv,___fladd@b
  3103  01E5CC  C03B  F054         	movff	?___fldiv+1,___fladd@b+1
  3104  01E5D0  C03C  F055         	movff	?___fldiv+2,___fladd@b+2
  3105  01E5D4  C03D  F056         	movff	?___fldiv+3,___fladd@b+3
  3106  01E5D8  EC25  F0F7         	call	___fladd	;wreg free
  3107  01E5DC  C053  F076         	movff	?___fladd,_ccpNum0$1120
  3108  01E5E0  C054  F077         	movff	?___fladd+1,_ccpNum0$1120+1
  3109  01E5E4  C055  F078         	movff	?___fladd+2,_ccpNum0$1120+2
  3110  01E5E8  C056  F079         	movff	?___fladd+3,_ccpNum0$1120+3
  3111  01E5EC                     
  3112                           ;sm.c: 232:           f3=((((float)4000000/4)/((float)period*8))+f3)/2;
  3113  01E5EC  0E00               	movlw	0
  3114  01E5EE  6E3E               	movwf	___fldiv@a^0,c
  3115  01E5F0  0E00               	movlw	0
  3116  01E5F2  6E3F               	movwf	(___fldiv@a+1)^0,c
  3117  01E5F4  0E00               	movlw	0
  3118  01E5F6  6E40               	movwf	(___fldiv@a+2)^0,c
  3119  01E5F8  0E40               	movlw	64
  3120  01E5FA  6E41               	movwf	(___fldiv@a+3)^0,c
  3121  01E5FC  C076  F03A         	movff	_ccpNum0$1120,___fldiv@b
  3122  01E600  C077  F03B         	movff	_ccpNum0$1120+1,___fldiv@b+1
  3123  01E604  C078  F03C         	movff	_ccpNum0$1120+2,___fldiv@b+2
  3124  01E608  C079  F03D         	movff	_ccpNum0$1120+3,___fldiv@b+3
  3125  01E60C  EC43  F0F3         	call	___fldiv	;wreg free
  3126  01E610  C03A  F064         	movff	?___fldiv,___fltol@f1
  3127  01E614  C03B  F065         	movff	?___fldiv+1,___fltol@f1+1
  3128  01E618  C03C  F066         	movff	?___fldiv+2,___fltol@f1+2
  3129  01E61C  C03D  F067         	movff	?___fldiv+3,___fltol@f1+3
  3130  01E620  ECDC  F0F0         	call	___fltol	;wreg free
  3131  01E624  C064  F0BC         	movff	?___fltol,_f3
  3132  01E628  C065  F0BD         	movff	?___fltol+1,_f3+1
  3133  01E62C  C066  F0BE         	movff	?___fltol+2,_f3+2
  3134  01E630  C067  F0BF         	movff	?___fltol+3,_f3+3
  3135  01E634                     l2962:
  3136                           
  3137                           ;sm.c: 234:         TMR1 = 0;
  3138  01E634  0E00               	movlw	0
  3139  01E636  6ECE               	movwf	206,c	;volatile
  3140  01E638  0E00               	movlw	0
  3141  01E63A  6ECD               	movwf	205,c	;volatile
  3142  01E63C                     
  3143                           ;sm.c: 235:     }
  3144  01E63C  0100               	movlb	0	; () banked
  3145  01E63E  4B7A               	infsnz	ccpNum0@q& (0+255),f,b
  3146  01E640  2B7B               	incf	(ccpNum0@q+1)& (0+255),f,b
  3147  01E642                     
  3148                           ; BSR set to: 0
  3149  01E642  BF7B               	btfsc	(ccpNum0@q+1)& (0+255),7,b
  3150  01E644  EF2D  F0F3         	goto	u2781
  3151  01E648  517B               	movf	(ccpNum0@q+1)& (0+255),w,b
  3152  01E64A  E109               	bnz	u2780
  3153  01E64C  0E05               	movlw	5
  3154  01E64E  5D7A               	subwf	ccpNum0@q& (0+255),w,b
  3155  01E650  A0D8               	btfss	status,0,c
  3156  01E652  EF2D  F0F3         	goto	u2781
  3157  01E656  EF2F  F0F3         	goto	u2780
  3158  01E65A                     u2781:
  3159  01E65A  EF3F  F0F2         	goto	l128
  3160  01E65E                     u2780:
  3161  01E65E                     
  3162                           ; BSR set to: 0
  3163                           ;sm.c: 236:     return f3;
  3164  01E65E  C0BC  F013         	movff	_f3,___xxtofl@val
  3165  01E662  C0BD  F014         	movff	_f3+1,___xxtofl@val+1
  3166  01E666  C0BE  F015         	movff	_f3+2,___xxtofl@val+2
  3167  01E66A  C0BF  F016         	movff	_f3+3,___xxtofl@val+3
  3168  01E66E  0E00               	movlw	0
  3169  01E670  EC60  F0F1         	call	___xxtofl
  3170  01E674  C013  F06E         	movff	?___xxtofl,?_ccpNum0
  3171  01E678  C014  F06F         	movff	?___xxtofl+1,?_ccpNum0+1
  3172  01E67C  C015  F070         	movff	?___xxtofl+2,?_ccpNum0+2
  3173  01E680  C016  F071         	movff	?___xxtofl+3,?_ccpNum0+3
  3174  01E684                     l132:
  3175  01E684  0012               	return		;funcret
  3176  01E686                     __end_of_ccpNum0:
  3177                           	opt callstack 0
  3178                           
  3179 ;; *************** function ___xxtofl *****************
  3180 ;; Defined at:
  3181 ;;		line 10 in file "C:\Program Files (x86)\Microchip\xc8\v2.10\pic\sources\c99\common\xxtofl.c"
  3182 ;; Parameters:    Size  Location     Type
  3183 ;;  sign            1    wreg     unsigned char 
  3184 ;;  val             4   18[COMRAM] long 
  3185 ;; Auto vars:     Size  Location     Type
  3186 ;;  sign            1   26[COMRAM] unsigned char 
  3187 ;;  arg             4   28[COMRAM] unsigned long 
  3188 ;;  exp             1   27[COMRAM] unsigned char 
  3189 ;; Return value:  Size  Location     Type
  3190 ;;                  4   18[COMRAM] unsigned char 
  3191 ;; Registers used:
  3192 ;;		wreg, status,2, status,0
  3193 ;; Tracked objects:
  3194 ;;		On entry : 0/0
  3195 ;;		On exit  : 0/0
  3196 ;;		Unchanged: 0/0
  3197 ;; Data sizes:     COMRAM   BANK0   BANK1   BANK2   BANK3   BANK4   BANK5   BANK6   BANK7   BANK8   BANK9  BANK10  BANK1
      +1  BANK12  BANK13  BANK14
  3198 ;;      Params:         4       0       0       0       0       0       0       0       0       0       0       0       
      +0       0       0       0
  3199 ;;      Locals:         6       0       0       0       0       0       0       0       0       0       0       0       
      +0       0       0       0
  3200 ;;      Temps:          4       0       0       0       0       0       0       0       0       0       0       0       
      +0       0       0       0
  3201 ;;      Totals:        14       0       0       0       0       0       0       0       0       0       0       0       
      +0       0       0       0
  3202 ;;Total ram usage:       14 bytes
  3203 ;; Hardware stack levels used:    1
  3204 ;; This function calls:
  3205 ;;		Nothing
  3206 ;; This function is called by:
  3207 ;;		_ccpNum0
  3208 ;;		_main
  3209 ;; This function uses a non-reentrant model
  3210 ;;
  3211                           
  3212                           	psect	text5
  3213  01E2C0                     __ptext5:
  3214                           	opt callstack 0
  3215  01E2C0                     ___xxtofl:
  3216                           	opt callstack 29
  3217                           
  3218                           ;incstack = 0
  3219                           ;___xxtofl@sign stored from wreg
  3220  01E2C0  6E1B               	movwf	___xxtofl@sign^0,c
  3221  01E2C2  501B               	movf	___xxtofl@sign^0,w,c
  3222  01E2C4  B4D8               	btfsc	status,2,c
  3223  01E2C6  EF67  F0F1         	goto	u2601
  3224  01E2CA  EF69  F0F1         	goto	u2600
  3225  01E2CE                     u2601:
  3226  01E2CE  EF8B  F0F1         	goto	l891
  3227  01E2D2                     u2600:
  3228  01E2D2  BE16               	btfsc	(___xxtofl@val+3)^0,7,c
  3229  01E2D4  EF70  F0F1         	goto	u2610
  3230  01E2D8  EF6E  F0F1         	goto	u2611
  3231  01E2DC                     u2611:
  3232  01E2DC  EF8B  F0F1         	goto	l891
  3233  01E2E0                     u2610:
  3234  01E2E0  C013  F017         	movff	___xxtofl@val,??___xxtofl
  3235  01E2E4  C014  F018         	movff	___xxtofl@val+1,??___xxtofl+1
  3236  01E2E8  C015  F019         	movff	___xxtofl@val+2,??___xxtofl+2
  3237  01E2EC  C016  F01A         	movff	___xxtofl@val+3,??___xxtofl+3
  3238  01E2F0  1E17               	comf	??___xxtofl^0,f,c
  3239  01E2F2  1E18               	comf	(??___xxtofl+1)^0,f,c
  3240  01E2F4  1E19               	comf	(??___xxtofl+2)^0,f,c
  3241  01E2F6  1E1A               	comf	(??___xxtofl+3)^0,f,c
  3242  01E2F8  2A17               	incf	??___xxtofl^0,f,c
  3243  01E2FA  0E00               	movlw	0
  3244  01E2FC  2218               	addwfc	(??___xxtofl+1)^0,f,c
  3245  01E2FE  2219               	addwfc	(??___xxtofl+2)^0,f,c
  3246  01E300  221A               	addwfc	(??___xxtofl+3)^0,f,c
  3247  01E302  C017  F01D         	movff	??___xxtofl,___xxtofl@arg
  3248  01E306  C018  F01E         	movff	??___xxtofl+1,___xxtofl@arg+1
  3249  01E30A  C019  F01F         	movff	??___xxtofl+2,___xxtofl@arg+2
  3250  01E30E  C01A  F020         	movff	??___xxtofl+3,___xxtofl@arg+3
  3251  01E312  EF93  F0F1         	goto	l2724
  3252  01E316                     l891:
  3253  01E316  C013  F01D         	movff	___xxtofl@val,___xxtofl@arg
  3254  01E31A  C014  F01E         	movff	___xxtofl@val+1,___xxtofl@arg+1
  3255  01E31E  C015  F01F         	movff	___xxtofl@val+2,___xxtofl@arg+2
  3256  01E322  C016  F020         	movff	___xxtofl@val+3,___xxtofl@arg+3
  3257  01E326                     l2724:
  3258  01E326  5013               	movf	___xxtofl@val^0,w,c
  3259  01E328  1014               	iorwf	(___xxtofl@val+1)^0,w,c
  3260  01E32A  1015               	iorwf	(___xxtofl@val+2)^0,w,c
  3261  01E32C  1016               	iorwf	(___xxtofl@val+3)^0,w,c
  3262  01E32E  A4D8               	btfss	status,2,c
  3263  01E330  EF9C  F0F1         	goto	u2621
  3264  01E334  EF9E  F0F1         	goto	u2620
  3265  01E338                     u2621:
  3266  01E338  EFA8  F0F1         	goto	l2730
  3267  01E33C                     u2620:
  3268  01E33C  0E00               	movlw	0
  3269  01E33E  6E13               	movwf	?___xxtofl^0,c
  3270  01E340  0E00               	movlw	0
  3271  01E342  6E14               	movwf	(?___xxtofl+1)^0,c
  3272  01E344  0E00               	movlw	0
  3273  01E346  6E15               	movwf	(?___xxtofl+2)^0,c
  3274  01E348  0E00               	movlw	0
  3275  01E34A  6E16               	movwf	(?___xxtofl+3)^0,c
  3276  01E34C  EF39  F0F2         	goto	l894
  3277  01E350                     l2730:
  3278  01E350  0E96               	movlw	150
  3279  01E352  6E1C               	movwf	___xxtofl@exp^0,c
  3280  01E354  EFB2  F0F1         	goto	l2734
  3281  01E358                     l2732:
  3282  01E358  2A1C               	incf	___xxtofl@exp^0,f,c
  3283  01E35A  90D8               	bcf	status,0,c
  3284  01E35C  3220               	rrcf	(___xxtofl@arg+3)^0,f,c
  3285  01E35E  321F               	rrcf	(___xxtofl@arg+2)^0,f,c
  3286  01E360  321E               	rrcf	(___xxtofl@arg+1)^0,f,c
  3287  01E362  321D               	rrcf	___xxtofl@arg^0,f,c
  3288  01E364                     l2734:
  3289  01E364  0E00               	movlw	0
  3290  01E366  141D               	andwf	___xxtofl@arg^0,w,c
  3291  01E368  6E17               	movwf	??___xxtofl^0,c
  3292  01E36A  0E00               	movlw	0
  3293  01E36C  141E               	andwf	(___xxtofl@arg+1)^0,w,c
  3294  01E36E  6E18               	movwf	(??___xxtofl+1)^0,c
  3295  01E370  0E00               	movlw	0
  3296  01E372  141F               	andwf	(___xxtofl@arg+2)^0,w,c
  3297  01E374  6E19               	movwf	(??___xxtofl+2)^0,c
  3298  01E376  0EFE               	movlw	254
  3299  01E378  1420               	andwf	(___xxtofl@arg+3)^0,w,c
  3300  01E37A  6E1A               	movwf	(??___xxtofl+3)^0,c
  3301  01E37C  5017               	movf	??___xxtofl^0,w,c
  3302  01E37E  1018               	iorwf	(??___xxtofl+1)^0,w,c
  3303  01E380  1019               	iorwf	(??___xxtofl+2)^0,w,c
  3304  01E382  101A               	iorwf	(??___xxtofl+3)^0,w,c
  3305  01E384  A4D8               	btfss	status,2,c
  3306  01E386  EFC7  F0F1         	goto	u2631
  3307  01E38A  EFC9  F0F1         	goto	u2630
  3308  01E38E                     u2631:
  3309  01E38E  EFAC  F0F1         	goto	l2732
  3310  01E392                     u2630:
  3311  01E392  EFD7  F0F1         	goto	l898
  3312  01E396                     l2736:
  3313  01E396  2A1C               	incf	___xxtofl@exp^0,f,c
  3314  01E398  0E01               	movlw	1
  3315  01E39A  261D               	addwf	___xxtofl@arg^0,f,c
  3316  01E39C  0E00               	movlw	0
  3317  01E39E  221E               	addwfc	(___xxtofl@arg+1)^0,f,c
  3318  01E3A0  221F               	addwfc	(___xxtofl@arg+2)^0,f,c
  3319  01E3A2  2220               	addwfc	(___xxtofl@arg+3)^0,f,c
  3320  01E3A4  90D8               	bcf	status,0,c
  3321  01E3A6  3220               	rrcf	(___xxtofl@arg+3)^0,f,c
  3322  01E3A8  321F               	rrcf	(___xxtofl@arg+2)^0,f,c
  3323  01E3AA  321E               	rrcf	(___xxtofl@arg+1)^0,f,c
  3324  01E3AC  321D               	rrcf	___xxtofl@arg^0,f,c
  3325  01E3AE                     l898:
  3326  01E3AE  0E00               	movlw	0
  3327  01E3B0  141D               	andwf	___xxtofl@arg^0,w,c
  3328  01E3B2  6E17               	movwf	??___xxtofl^0,c
  3329  01E3B4  0E00               	movlw	0
  3330  01E3B6  141E               	andwf	(___xxtofl@arg+1)^0,w,c
  3331  01E3B8  6E18               	movwf	(??___xxtofl+1)^0,c
  3332  01E3BA  0E00               	movlw	0
  3333  01E3BC  141F               	andwf	(___xxtofl@arg+2)^0,w,c
  3334  01E3BE  6E19               	movwf	(??___xxtofl+2)^0,c
  3335  01E3C0  0EFF               	movlw	255
  3336  01E3C2  1420               	andwf	(___xxtofl@arg+3)^0,w,c
  3337  01E3C4  6E1A               	movwf	(??___xxtofl+3)^0,c
  3338  01E3C6  5017               	movf	??___xxtofl^0,w,c
  3339  01E3C8  1018               	iorwf	(??___xxtofl+1)^0,w,c
  3340  01E3CA  1019               	iorwf	(??___xxtofl+2)^0,w,c
  3341  01E3CC  101A               	iorwf	(??___xxtofl+3)^0,w,c
  3342  01E3CE  A4D8               	btfss	status,2,c
  3343  01E3D0  EFEC  F0F1         	goto	u2641
  3344  01E3D4  EFEE  F0F1         	goto	u2640
  3345  01E3D8                     u2641:
  3346  01E3D8  EFCB  F0F1         	goto	l2736
  3347  01E3DC                     u2640:
  3348  01E3DC  EFF6  F0F1         	goto	l2744
  3349  01E3E0                     l2742:
  3350  01E3E0  061C               	decf	___xxtofl@exp^0,f,c
  3351  01E3E2  90D8               	bcf	status,0,c
  3352  01E3E4  361D               	rlcf	___xxtofl@arg^0,f,c
  3353  01E3E6  361E               	rlcf	(___xxtofl@arg+1)^0,f,c
  3354  01E3E8  361F               	rlcf	(___xxtofl@arg+2)^0,f,c
  3355  01E3EA  3620               	rlcf	(___xxtofl@arg+3)^0,f,c
  3356  01E3EC                     l2744:
  3357  01E3EC  BE1F               	btfsc	(___xxtofl@arg+2)^0,7,c
  3358  01E3EE  EFFB  F0F1         	goto	u2651
  3359  01E3F2  EFFD  F0F1         	goto	u2650
  3360  01E3F6                     u2651:
  3361  01E3F6  EF05  F0F2         	goto	l905
  3362  01E3FA                     u2650:
  3363  01E3FA  0E02               	movlw	2
  3364  01E3FC  601C               	cpfslt	___xxtofl@exp^0,c
  3365  01E3FE  EF03  F0F2         	goto	u2661
  3366  01E402  EF05  F0F2         	goto	u2660
  3367  01E406                     u2661:
  3368  01E406  EFF0  F0F1         	goto	l2742
  3369  01E40A                     u2660:
  3370  01E40A                     l905:
  3371  01E40A  B01C               	btfsc	___xxtofl@exp^0,0,c
  3372  01E40C  EF0A  F0F2         	goto	u2671
  3373  01E410  EF0C  F0F2         	goto	u2670
  3374  01E414                     u2671:
  3375  01E414  EF0D  F0F2         	goto	l2750
  3376  01E418                     u2670:
  3377  01E418  9E1F               	bcf	(___xxtofl@arg+2)^0,7,c
  3378  01E41A                     l2750:
  3379  01E41A  90D8               	bcf	status,0,c
  3380  01E41C  321C               	rrcf	___xxtofl@exp^0,f,c
  3381  01E41E  C01C  F017         	movff	___xxtofl@exp,??___xxtofl
  3382  01E422  6A18               	clrf	(??___xxtofl+1)^0,c
  3383  01E424  6A19               	clrf	(??___xxtofl+2)^0,c
  3384  01E426  6A1A               	clrf	(??___xxtofl+3)^0,c
  3385  01E428  C017  F01A         	movff	??___xxtofl,??___xxtofl+3
  3386  01E42C  6A19               	clrf	(??___xxtofl+2)^0,c
  3387  01E42E  6A18               	clrf	(??___xxtofl+1)^0,c
  3388  01E430  6A17               	clrf	??___xxtofl^0,c
  3389  01E432  5017               	movf	??___xxtofl^0,w,c
  3390  01E434  121D               	iorwf	___xxtofl@arg^0,f,c
  3391  01E436  5018               	movf	(??___xxtofl+1)^0,w,c
  3392  01E438  121E               	iorwf	(___xxtofl@arg+1)^0,f,c
  3393  01E43A  5019               	movf	(??___xxtofl+2)^0,w,c
  3394  01E43C  121F               	iorwf	(___xxtofl@arg+2)^0,f,c
  3395  01E43E  501A               	movf	(??___xxtofl+3)^0,w,c
  3396  01E440  1220               	iorwf	(___xxtofl@arg+3)^0,f,c
  3397  01E442  501B               	movf	___xxtofl@sign^0,w,c
  3398  01E444  B4D8               	btfsc	status,2,c
  3399  01E446  EF27  F0F2         	goto	u2681
  3400  01E44A  EF29  F0F2         	goto	u2680
  3401  01E44E                     u2681:
  3402  01E44E  EF31  F0F2         	goto	l2760
  3403  01E452                     u2680:
  3404  01E452  BE16               	btfsc	(___xxtofl@val+3)^0,7,c
  3405  01E454  EF30  F0F2         	goto	u2690
  3406  01E458  EF2E  F0F2         	goto	u2691
  3407  01E45C                     u2691:
  3408  01E45C  EF31  F0F2         	goto	l2760
  3409  01E460                     u2690:
  3410  01E460  8E20               	bsf	(___xxtofl@arg+3)^0,7,c
  3411  01E462                     l2760:
  3412  01E462  C01D  F013         	movff	___xxtofl@arg,?___xxtofl
  3413  01E466  C01E  F014         	movff	___xxtofl@arg+1,?___xxtofl+1
  3414  01E46A  C01F  F015         	movff	___xxtofl@arg+2,?___xxtofl+2
  3415  01E46E  C020  F016         	movff	___xxtofl@arg+3,?___xxtofl+3
  3416  01E472                     l894:
  3417  01E472  0012               	return		;funcret
  3418  01E474                     __end_of___xxtofl:
  3419                           	opt callstack 0
  3420                           
  3421 ;; *************** function ___fltol *****************
  3422 ;; Defined at:
  3423 ;;		line 43 in file "C:\Program Files (x86)\Microchip\xc8\v2.10\pic\sources\c99\common\fltol.c"
  3424 ;; Parameters:    Size  Location     Type
  3425 ;;  f1              4    4[BANK0 ] unsigned char 
  3426 ;; Auto vars:     Size  Location     Type
  3427 ;;  exp1            1   13[BANK0 ] unsigned char 
  3428 ;;  sign1           1   12[BANK0 ] unsigned char 
  3429 ;; Return value:  Size  Location     Type
  3430 ;;                  4    4[BANK0 ] long 
  3431 ;; Registers used:
  3432 ;;		wreg, status,2, status,0
  3433 ;; Tracked objects:
  3434 ;;		On entry : 0/0
  3435 ;;		On exit  : 0/0
  3436 ;;		Unchanged: 0/0
  3437 ;; Data sizes:     COMRAM   BANK0   BANK1   BANK2   BANK3   BANK4   BANK5   BANK6   BANK7   BANK8   BANK9  BANK10  BANK1
      +1  BANK12  BANK13  BANK14
  3438 ;;      Params:         0       4       0       0       0       0       0       0       0       0       0       0       
      +0       0       0       0
  3439 ;;      Locals:         0       2       0       0       0       0       0       0       0       0       0       0       
      +0       0       0       0
  3440 ;;      Temps:          0       4       0       0       0       0       0       0       0       0       0       0       
      +0       0       0       0
  3441 ;;      Totals:         0      10       0       0       0       0       0       0       0       0       0       0       
      +0       0       0       0
  3442 ;;Total ram usage:       10 bytes
  3443 ;; Hardware stack levels used:    1
  3444 ;; This function calls:
  3445 ;;		Nothing
  3446 ;; This function is called by:
  3447 ;;		_ccpNum0
  3448 ;;		_main
  3449 ;; This function uses a non-reentrant model
  3450 ;;
  3451                           
  3452                           	psect	text6
  3453  01E1B8                     __ptext6:
  3454                           	opt callstack 0
  3455  01E1B8                     ___fltol:
  3456                           	opt callstack 29
  3457  01E1B8  0100               	movlb	0	; () banked
  3458  01E1BA  3566               	rlcf	(___fltol@f1+2)& (0+255),w,b
  3459  01E1BC  3567               	rlcf	(___fltol@f1+3)& (0+255),w,b
  3460  01E1BE  6F6D               	movwf	___fltol@exp1& (0+255),b
  3461  01E1C0  516D               	movf	___fltol@exp1& (0+255),w,b
  3462  01E1C2  A4D8               	btfss	status,2,c
  3463  01E1C4  EFE6  F0F0         	goto	u2531
  3464  01E1C8  EFE8  F0F0         	goto	u2530
  3465  01E1CC                     u2531:
  3466  01E1CC  EFF2  F0F0         	goto	l2680
  3467  01E1D0                     u2530:
  3468  01E1D0                     l2676:
  3469                           
  3470                           ; BSR set to: 0
  3471  01E1D0  0E00               	movlw	0
  3472  01E1D2  6F64               	movwf	?___fltol& (0+255),b
  3473  01E1D4  0E00               	movlw	0
  3474  01E1D6  6F65               	movwf	(?___fltol+1)& (0+255),b
  3475  01E1D8  0E00               	movlw	0
  3476  01E1DA  6F66               	movwf	(?___fltol+2)& (0+255),b
  3477  01E1DC  0E00               	movlw	0
  3478  01E1DE  6F67               	movwf	(?___fltol+3)& (0+255),b
  3479  01E1E0  EF5F  F0F1         	goto	l533
  3480  01E1E4                     l2680:
  3481                           
  3482                           ; BSR set to: 0
  3483  01E1E4  C064  F068         	movff	___fltol@f1,??___fltol
  3484  01E1E8  C065  F069         	movff	___fltol@f1+1,??___fltol+1
  3485  01E1EC  C066  F06A         	movff	___fltol@f1+2,??___fltol+2
  3486  01E1F0  C067  F06B         	movff	___fltol@f1+3,??___fltol+3
  3487  01E1F4  0E20               	movlw	32
  3488  01E1F6  EF02  F0F1         	goto	u2540
  3489  01E1FA                     u2545:
  3490  01E1FA  90D8               	bcf	status,0,c
  3491  01E1FC  336B               	rrcf	(??___fltol+3)& (0+255),f,b
  3492  01E1FE  336A               	rrcf	(??___fltol+2)& (0+255),f,b
  3493  01E200  3369               	rrcf	(??___fltol+1)& (0+255),f,b
  3494  01E202  3368               	rrcf	??___fltol& (0+255),f,b
  3495  01E204                     u2540:
  3496  01E204  2EE8               	decfsz	wreg,f,c
  3497  01E206  EFFD  F0F0         	goto	u2545
  3498  01E20A  5168               	movf	??___fltol& (0+255),w,b
  3499  01E20C  6F6C               	movwf	___fltol@sign1& (0+255),b
  3500  01E20E                     
  3501                           ; BSR set to: 0
  3502  01E20E  8F66               	bsf	(___fltol@f1+2)& (0+255),7,b
  3503  01E210                     
  3504                           ; BSR set to: 0
  3505  01E210  0EFF               	movlw	255
  3506  01E212  1764               	andwf	___fltol@f1& (0+255),f,b
  3507  01E214  0EFF               	movlw	255
  3508  01E216  1765               	andwf	(___fltol@f1+1)& (0+255),f,b
  3509  01E218  0EFF               	movlw	255
  3510  01E21A  1766               	andwf	(___fltol@f1+2)& (0+255),f,b
  3511  01E21C  0E00               	movlw	0
  3512  01E21E  1767               	andwf	(___fltol@f1+3)& (0+255),f,b
  3513  01E220                     
  3514                           ; BSR set to: 0
  3515  01E220  0E96               	movlw	150
  3516  01E222  5F6D               	subwf	___fltol@exp1& (0+255),f,b
  3517  01E224                     
  3518                           ; BSR set to: 0
  3519  01E224  BF6D               	btfsc	___fltol@exp1& (0+255),7,b
  3520  01E226  EF19  F0F1         	goto	u2550
  3521  01E22A  EF17  F0F1         	goto	u2551
  3522  01E22E                     u2551:
  3523  01E22E  EF2F  F0F1         	goto	l2700
  3524  01E232                     u2550:
  3525  01E232                     
  3526                           ; BSR set to: 0
  3527  01E232  516D               	movf	___fltol@exp1& (0+255),w,b
  3528  01E234  0A80               	xorlw	128
  3529  01E236  0F97               	addlw	151
  3530  01E238  B0D8               	btfsc	status,0,c
  3531  01E23A  EF21  F0F1         	goto	u2561
  3532  01E23E  EF23  F0F1         	goto	u2560
  3533  01E242                     u2561:
  3534  01E242  EF25  F0F1         	goto	l2696
  3535  01E246                     u2560:
  3536  01E246  EFE8  F0F0         	goto	l2676
  3537  01E24A                     l2696:
  3538                           
  3539                           ; BSR set to: 0
  3540  01E24A  90D8               	bcf	status,0,c
  3541  01E24C  3367               	rrcf	(___fltol@f1+3)& (0+255),f,b
  3542  01E24E  3366               	rrcf	(___fltol@f1+2)& (0+255),f,b
  3543  01E250  3365               	rrcf	(___fltol@f1+1)& (0+255),f,b
  3544  01E252  3364               	rrcf	___fltol@f1& (0+255),f,b
  3545  01E254                     
  3546                           ; BSR set to: 0
  3547  01E254  3F6D               	incfsz	___fltol@exp1& (0+255),f,b
  3548  01E256  EF25  F0F1         	goto	l2696
  3549  01E25A  EF47  F0F1         	goto	l2710
  3550  01E25E                     l2700:
  3551                           
  3552                           ; BSR set to: 0
  3553  01E25E  0E1F               	movlw	31
  3554  01E260  656D               	cpfsgt	___fltol@exp1& (0+255),b
  3555  01E262  EF35  F0F1         	goto	u2571
  3556  01E266  EF37  F0F1         	goto	u2570
  3557  01E26A                     u2571:
  3558  01E26A  EF3F  F0F1         	goto	l2708
  3559  01E26E                     u2570:
  3560  01E26E  EFE8  F0F0         	goto	l2676
  3561  01E272                     l2706:
  3562                           
  3563                           ; BSR set to: 0
  3564  01E272  90D8               	bcf	status,0,c
  3565  01E274  3764               	rlcf	___fltol@f1& (0+255),f,b
  3566  01E276  3765               	rlcf	(___fltol@f1+1)& (0+255),f,b
  3567  01E278  3766               	rlcf	(___fltol@f1+2)& (0+255),f,b
  3568  01E27A  3767               	rlcf	(___fltol@f1+3)& (0+255),f,b
  3569  01E27C  076D               	decf	___fltol@exp1& (0+255),f,b
  3570  01E27E                     l2708:
  3571                           
  3572                           ; BSR set to: 0
  3573  01E27E  516D               	movf	___fltol@exp1& (0+255),w,b
  3574  01E280  A4D8               	btfss	status,2,c
  3575  01E282  EF45  F0F1         	goto	u2581
  3576  01E286  EF47  F0F1         	goto	u2580
  3577  01E28A                     u2581:
  3578  01E28A  EF39  F0F1         	goto	l2706
  3579  01E28E                     u2580:
  3580  01E28E                     l2710:
  3581                           
  3582                           ; BSR set to: 0
  3583  01E28E  516C               	movf	___fltol@sign1& (0+255),w,b
  3584  01E290  B4D8               	btfsc	status,2,c
  3585  01E292  EF4D  F0F1         	goto	u2591
  3586  01E296  EF4F  F0F1         	goto	u2590
  3587  01E29A                     u2591:
  3588  01E29A  EF57  F0F1         	goto	l2714
  3589  01E29E                     u2590:
  3590  01E29E                     
  3591                           ; BSR set to: 0
  3592  01E29E  1F67               	comf	(___fltol@f1+3)& (0+255),f,b
  3593  01E2A0  1F66               	comf	(___fltol@f1+2)& (0+255),f,b
  3594  01E2A2  1F65               	comf	(___fltol@f1+1)& (0+255),f,b
  3595  01E2A4  6D64               	negf	___fltol@f1& (0+255),b
  3596  01E2A6  0E00               	movlw	0
  3597  01E2A8  2365               	addwfc	(___fltol@f1+1)& (0+255),f,b
  3598  01E2AA  2366               	addwfc	(___fltol@f1+2)& (0+255),f,b
  3599  01E2AC  2367               	addwfc	(___fltol@f1+3)& (0+255),f,b
  3600  01E2AE                     l2714:
  3601                           
  3602                           ; BSR set to: 0
  3603  01E2AE  C064  F064         	movff	___fltol@f1,?___fltol
  3604  01E2B2  C065  F065         	movff	___fltol@f1+1,?___fltol+1
  3605  01E2B6  C066  F066         	movff	___fltol@f1+2,?___fltol+2
  3606  01E2BA  C067  F067         	movff	___fltol@f1+3,?___fltol+3
  3607  01E2BE                     l533:
  3608                           
  3609                           ; BSR set to: 0
  3610  01E2BE  0012               	return		;funcret
  3611  01E2C0                     __end_of___fltol:
  3612                           	opt callstack 0
  3613                           
  3614 ;; *************** function ___flmul *****************
  3615 ;; Defined at:
  3616 ;;		line 8 in file "C:\Program Files (x86)\Microchip\xc8\v2.10\pic\sources\c99\common\sprcmul.c"
  3617 ;; Parameters:    Size  Location     Type
  3618 ;;  b               4   32[COMRAM] long 
  3619 ;;  a               4   36[COMRAM] long 
  3620 ;; Auto vars:     Size  Location     Type
  3621 ;;  prod            4   51[COMRAM] struct .
  3622 ;;  grs             4   45[COMRAM] unsigned long 
  3623 ;;  temp            2   55[COMRAM] struct .
  3624 ;;  bexp            1   50[COMRAM] unsigned char 
  3625 ;;  aexp            1   49[COMRAM] unsigned char 
  3626 ;;  sign            1   44[COMRAM] unsigned char 
  3627 ;; Return value:  Size  Location     Type
  3628 ;;                  4   32[COMRAM] unsigned char 
  3629 ;; Registers used:
  3630 ;;		wreg, status,2, status,0, prodl, prodh
  3631 ;; Tracked objects:
  3632 ;;		On entry : 0/0
  3633 ;;		On exit  : 0/0
  3634 ;;		Unchanged: 0/0
  3635 ;; Data sizes:     COMRAM   BANK0   BANK1   BANK2   BANK3   BANK4   BANK5   BANK6   BANK7   BANK8   BANK9  BANK10  BANK1
      +1  BANK12  BANK13  BANK14
  3636 ;;      Params:         8       0       0       0       0       0       0       0       0       0       0       0       
      +0       0       0       0
  3637 ;;      Locals:        13       0       0       0       0       0       0       0       0       0       0       0       
      +0       0       0       0
  3638 ;;      Temps:          4       0       0       0       0       0       0       0       0       0       0       0       
      +0       0       0       0
  3639 ;;      Totals:        25       0       0       0       0       0       0       0       0       0       0       0       
      +0       0       0       0
  3640 ;;Total ram usage:       25 bytes
  3641 ;; Hardware stack levels used:    1
  3642 ;; This function calls:
  3643 ;;		Nothing
  3644 ;; This function is called by:
  3645 ;;		_ccpNum0
  3646 ;;		_main
  3647 ;; This function uses a non-reentrant model
  3648 ;;
  3649                           
  3650                           	psect	text7
  3651  01EA20                     __ptext7:
  3652                           	opt callstack 0
  3653  01EA20                     ___flmul:
  3654                           	opt callstack 29
  3655  01EA20  5024               	movf	(___flmul@b+3)^0,w,c
  3656  01EA22  0B80               	andlw	128
  3657  01EA24  6E2D               	movwf	___flmul@sign^0,c
  3658  01EA26  5024               	movf	(___flmul@b+3)^0,w,c
  3659  01EA28  2424               	addwf	(___flmul@b+3)^0,w,c
  3660  01EA2A  6E33               	movwf	___flmul@bexp^0,c
  3661  01EA2C  AE23               	btfss	(___flmul@b+2)^0,7,c
  3662  01EA2E  EF1B  F0F5         	goto	u2341
  3663  01EA32  EF1D  F0F5         	goto	u2340
  3664  01EA36                     u2341:
  3665  01EA36  EF1E  F0F5         	goto	l2550
  3666  01EA3A                     u2340:
  3667  01EA3A  8033               	bsf	___flmul@bexp^0,0,c
  3668  01EA3C                     l2550:
  3669  01EA3C  5033               	movf	___flmul@bexp^0,w,c
  3670  01EA3E  B4D8               	btfsc	status,2,c
  3671  01EA40  EF24  F0F5         	goto	u2351
  3672  01EA44  EF26  F0F5         	goto	u2350
  3673  01EA48                     u2351:
  3674  01EA48  EF39  F0F5         	goto	l2558
  3675  01EA4C                     u2350:
  3676  01EA4C  2833               	incf	___flmul@bexp^0,w,c
  3677  01EA4E  A4D8               	btfss	status,2,c
  3678  01EA50  EF2C  F0F5         	goto	u2361
  3679  01EA54  EF2E  F0F5         	goto	u2360
  3680  01EA58                     u2361:
  3681  01EA58  EF36  F0F5         	goto	l2556
  3682  01EA5C                     u2360:
  3683  01EA5C  0E00               	movlw	0
  3684  01EA5E  6E21               	movwf	___flmul@b^0,c
  3685  01EA60  0E00               	movlw	0
  3686  01EA62  6E22               	movwf	(___flmul@b+1)^0,c
  3687  01EA64  0E00               	movlw	0
  3688  01EA66  6E23               	movwf	(___flmul@b+2)^0,c
  3689  01EA68  0E00               	movlw	0
  3690  01EA6A  6E24               	movwf	(___flmul@b+3)^0,c
  3691  01EA6C                     l2556:
  3692  01EA6C  8E23               	bsf	(___flmul@b+2)^0,7,c
  3693  01EA6E  EF41  F0F5         	goto	l2560
  3694  01EA72                     l2558:
  3695  01EA72  0E00               	movlw	0
  3696  01EA74  6E21               	movwf	___flmul@b^0,c
  3697  01EA76  0E00               	movlw	0
  3698  01EA78  6E22               	movwf	(___flmul@b+1)^0,c
  3699  01EA7A  0E00               	movlw	0
  3700  01EA7C  6E23               	movwf	(___flmul@b+2)^0,c
  3701  01EA7E  0E00               	movlw	0
  3702  01EA80  6E24               	movwf	(___flmul@b+3)^0,c
  3703  01EA82                     l2560:
  3704  01EA82  5028               	movf	(___flmul@a+3)^0,w,c
  3705  01EA84  0B80               	andlw	128
  3706  01EA86  1A2D               	xorwf	___flmul@sign^0,f,c
  3707  01EA88  5028               	movf	(___flmul@a+3)^0,w,c
  3708  01EA8A  2428               	addwf	(___flmul@a+3)^0,w,c
  3709  01EA8C  6E32               	movwf	___flmul@aexp^0,c
  3710  01EA8E  AE27               	btfss	(___flmul@a+2)^0,7,c
  3711  01EA90  EF4C  F0F5         	goto	u2371
  3712  01EA94  EF4E  F0F5         	goto	u2370
  3713  01EA98                     u2371:
  3714  01EA98  EF4F  F0F5         	goto	l2568
  3715  01EA9C                     u2370:
  3716  01EA9C  8032               	bsf	___flmul@aexp^0,0,c
  3717  01EA9E                     l2568:
  3718  01EA9E  5032               	movf	___flmul@aexp^0,w,c
  3719  01EAA0  B4D8               	btfsc	status,2,c
  3720  01EAA2  EF55  F0F5         	goto	u2381
  3721  01EAA6  EF57  F0F5         	goto	u2380
  3722  01EAAA                     u2381:
  3723  01EAAA  EF6A  F0F5         	goto	l2576
  3724  01EAAE                     u2380:
  3725  01EAAE  2832               	incf	___flmul@aexp^0,w,c
  3726  01EAB0  A4D8               	btfss	status,2,c
  3727  01EAB2  EF5D  F0F5         	goto	u2391
  3728  01EAB6  EF5F  F0F5         	goto	u2390
  3729  01EABA                     u2391:
  3730  01EABA  EF67  F0F5         	goto	l2574
  3731  01EABE                     u2390:
  3732  01EABE  0E00               	movlw	0
  3733  01EAC0  6E25               	movwf	___flmul@a^0,c
  3734  01EAC2  0E00               	movlw	0
  3735  01EAC4  6E26               	movwf	(___flmul@a+1)^0,c
  3736  01EAC6  0E00               	movlw	0
  3737  01EAC8  6E27               	movwf	(___flmul@a+2)^0,c
  3738  01EACA  0E00               	movlw	0
  3739  01EACC  6E28               	movwf	(___flmul@a+3)^0,c
  3740  01EACE                     l2574:
  3741  01EACE  8E27               	bsf	(___flmul@a+2)^0,7,c
  3742  01EAD0  EF72  F0F5         	goto	l850
  3743  01EAD4                     l2576:
  3744  01EAD4  0E00               	movlw	0
  3745  01EAD6  6E25               	movwf	___flmul@a^0,c
  3746  01EAD8  0E00               	movlw	0
  3747  01EADA  6E26               	movwf	(___flmul@a+1)^0,c
  3748  01EADC  0E00               	movlw	0
  3749  01EADE  6E27               	movwf	(___flmul@a+2)^0,c
  3750  01EAE0  0E00               	movlw	0
  3751  01EAE2  6E28               	movwf	(___flmul@a+3)^0,c
  3752  01EAE4                     l850:
  3753  01EAE4  5032               	movf	___flmul@aexp^0,w,c
  3754  01EAE6  B4D8               	btfsc	status,2,c
  3755  01EAE8  EF78  F0F5         	goto	u2401
  3756  01EAEC  EF7A  F0F5         	goto	u2400
  3757  01EAF0                     u2401:
  3758  01EAF0  EF82  F0F5         	goto	l2580
  3759  01EAF4                     u2400:
  3760  01EAF4  5033               	movf	___flmul@bexp^0,w,c
  3761  01EAF6  A4D8               	btfss	status,2,c
  3762  01EAF8  EF80  F0F5         	goto	u2411
  3763  01EAFC  EF82  F0F5         	goto	u2410
  3764  01EB00                     u2411:
  3765  01EB00  EF8C  F0F5         	goto	l2584
  3766  01EB04                     u2410:
  3767  01EB04                     l2580:
  3768  01EB04  0E00               	movlw	0
  3769  01EB06  6E21               	movwf	?___flmul^0,c
  3770  01EB08  0E00               	movlw	0
  3771  01EB0A  6E22               	movwf	(?___flmul+1)^0,c
  3772  01EB0C  0E00               	movlw	0
  3773  01EB0E  6E23               	movwf	(?___flmul+2)^0,c
  3774  01EB10  0E00               	movlw	0
  3775  01EB12  6E24               	movwf	(?___flmul+3)^0,c
  3776  01EB14  EF24  F0F7         	goto	l854
  3777  01EB18                     l2584:
  3778  01EB18  5027               	movf	(___flmul@a+2)^0,w,c
  3779  01EB1A  0221               	mulwf	___flmul@b^0,c
  3780  01EB1C  CFF3 F038          	movff	prodl,___flmul@temp
  3781  01EB20  CFF4 F039          	movff	prodh,___flmul@temp+1
  3782  01EB24  5038               	movf	___flmul@temp^0,w,c
  3783  01EB26  6E2E               	movwf	___flmul@grs^0,c
  3784  01EB28  6A2F               	clrf	(___flmul@grs+1)^0,c
  3785  01EB2A  6A30               	clrf	(___flmul@grs+2)^0,c
  3786  01EB2C  6A31               	clrf	(___flmul@grs+3)^0,c
  3787  01EB2E  5039               	movf	(___flmul@temp+1)^0,w,c
  3788  01EB30  6E34               	movwf	___flmul@prod^0,c
  3789  01EB32  6A35               	clrf	(___flmul@prod+1)^0,c
  3790  01EB34  6A36               	clrf	(___flmul@prod+2)^0,c
  3791  01EB36  6A37               	clrf	(___flmul@prod+3)^0,c
  3792  01EB38  5026               	movf	(___flmul@a+1)^0,w,c
  3793  01EB3A  0222               	mulwf	(___flmul@b+1)^0,c
  3794  01EB3C  CFF3 F038          	movff	prodl,___flmul@temp
  3795  01EB40  CFF4 F039          	movff	prodh,___flmul@temp+1
  3796  01EB44  5038               	movf	___flmul@temp^0,w,c
  3797  01EB46  262E               	addwf	___flmul@grs^0,f,c
  3798  01EB48  0E00               	movlw	0
  3799  01EB4A  222F               	addwfc	(___flmul@grs+1)^0,f,c
  3800  01EB4C  2230               	addwfc	(___flmul@grs+2)^0,f,c
  3801  01EB4E  2231               	addwfc	(___flmul@grs+3)^0,f,c
  3802  01EB50  5039               	movf	(___flmul@temp+1)^0,w,c
  3803  01EB52  2634               	addwf	___flmul@prod^0,f,c
  3804  01EB54  0E00               	movlw	0
  3805  01EB56  2235               	addwfc	(___flmul@prod+1)^0,f,c
  3806  01EB58  2236               	addwfc	(___flmul@prod+2)^0,f,c
  3807  01EB5A  2237               	addwfc	(___flmul@prod+3)^0,f,c
  3808  01EB5C  5025               	movf	___flmul@a^0,w,c
  3809  01EB5E  0223               	mulwf	(___flmul@b+2)^0,c
  3810  01EB60  CFF3 F038          	movff	prodl,___flmul@temp
  3811  01EB64  CFF4 F039          	movff	prodh,___flmul@temp+1
  3812  01EB68  5038               	movf	___flmul@temp^0,w,c
  3813  01EB6A  262E               	addwf	___flmul@grs^0,f,c
  3814  01EB6C  0E00               	movlw	0
  3815  01EB6E  222F               	addwfc	(___flmul@grs+1)^0,f,c
  3816  01EB70  2230               	addwfc	(___flmul@grs+2)^0,f,c
  3817  01EB72  2231               	addwfc	(___flmul@grs+3)^0,f,c
  3818  01EB74  5039               	movf	(___flmul@temp+1)^0,w,c
  3819  01EB76  2634               	addwf	___flmul@prod^0,f,c
  3820  01EB78  0E00               	movlw	0
  3821  01EB7A  2235               	addwfc	(___flmul@prod+1)^0,f,c
  3822  01EB7C  2236               	addwfc	(___flmul@prod+2)^0,f,c
  3823  01EB7E  2237               	addwfc	(___flmul@prod+3)^0,f,c
  3824  01EB80  C030  F031         	movff	___flmul@grs+2,___flmul@grs+3
  3825  01EB84  C02F  F030         	movff	___flmul@grs+1,___flmul@grs+2
  3826  01EB88  C02E  F02F         	movff	___flmul@grs,___flmul@grs+1
  3827  01EB8C  6A2E               	clrf	___flmul@grs^0,c
  3828  01EB8E  5025               	movf	___flmul@a^0,w,c
  3829  01EB90  0222               	mulwf	(___flmul@b+1)^0,c
  3830  01EB92  CFF3 F038          	movff	prodl,___flmul@temp
  3831  01EB96  CFF4 F039          	movff	prodh,___flmul@temp+1
  3832  01EB9A  5038               	movf	___flmul@temp^0,w,c
  3833  01EB9C  262E               	addwf	___flmul@grs^0,f,c
  3834  01EB9E  5039               	movf	(___flmul@temp+1)^0,w,c
  3835  01EBA0  222F               	addwfc	(___flmul@grs+1)^0,f,c
  3836  01EBA2  0E00               	movlw	0
  3837  01EBA4  2230               	addwfc	(___flmul@grs+2)^0,f,c
  3838  01EBA6  0E00               	movlw	0
  3839  01EBA8  2231               	addwfc	(___flmul@grs+3)^0,f,c
  3840  01EBAA  5026               	movf	(___flmul@a+1)^0,w,c
  3841  01EBAC  0221               	mulwf	___flmul@b^0,c
  3842  01EBAE  CFF3 F038          	movff	prodl,___flmul@temp
  3843  01EBB2  CFF4 F039          	movff	prodh,___flmul@temp+1
  3844  01EBB6  5038               	movf	___flmul@temp^0,w,c
  3845  01EBB8  262E               	addwf	___flmul@grs^0,f,c
  3846  01EBBA  5039               	movf	(___flmul@temp+1)^0,w,c
  3847  01EBBC  222F               	addwfc	(___flmul@grs+1)^0,f,c
  3848  01EBBE  0E00               	movlw	0
  3849  01EBC0  2230               	addwfc	(___flmul@grs+2)^0,f,c
  3850  01EBC2  0E00               	movlw	0
  3851  01EBC4  2231               	addwfc	(___flmul@grs+3)^0,f,c
  3852  01EBC6  C030  F031         	movff	___flmul@grs+2,___flmul@grs+3
  3853  01EBCA  C02F  F030         	movff	___flmul@grs+1,___flmul@grs+2
  3854  01EBCE  C02E  F02F         	movff	___flmul@grs,___flmul@grs+1
  3855  01EBD2  6A2E               	clrf	___flmul@grs^0,c
  3856  01EBD4  5025               	movf	___flmul@a^0,w,c
  3857  01EBD6  0221               	mulwf	___flmul@b^0,c
  3858  01EBD8  CFF3 F038          	movff	prodl,___flmul@temp
  3859  01EBDC  CFF4 F039          	movff	prodh,___flmul@temp+1
  3860  01EBE0  5038               	movf	___flmul@temp^0,w,c
  3861  01EBE2  262E               	addwf	___flmul@grs^0,f,c
  3862  01EBE4  5039               	movf	(___flmul@temp+1)^0,w,c
  3863  01EBE6  222F               	addwfc	(___flmul@grs+1)^0,f,c
  3864  01EBE8  0E00               	movlw	0
  3865  01EBEA  2230               	addwfc	(___flmul@grs+2)^0,f,c
  3866  01EBEC  0E00               	movlw	0
  3867  01EBEE  2231               	addwfc	(___flmul@grs+3)^0,f,c
  3868  01EBF0  5027               	movf	(___flmul@a+2)^0,w,c
  3869  01EBF2  0222               	mulwf	(___flmul@b+1)^0,c
  3870  01EBF4  CFF3 F038          	movff	prodl,___flmul@temp
  3871  01EBF8  CFF4 F039          	movff	prodh,___flmul@temp+1
  3872  01EBFC  5038               	movf	___flmul@temp^0,w,c
  3873  01EBFE  2634               	addwf	___flmul@prod^0,f,c
  3874  01EC00  5039               	movf	(___flmul@temp+1)^0,w,c
  3875  01EC02  2235               	addwfc	(___flmul@prod+1)^0,f,c
  3876  01EC04  0E00               	movlw	0
  3877  01EC06  2236               	addwfc	(___flmul@prod+2)^0,f,c
  3878  01EC08  0E00               	movlw	0
  3879  01EC0A  2237               	addwfc	(___flmul@prod+3)^0,f,c
  3880  01EC0C  5026               	movf	(___flmul@a+1)^0,w,c
  3881  01EC0E  0223               	mulwf	(___flmul@b+2)^0,c
  3882  01EC10  CFF3 F038          	movff	prodl,___flmul@temp
  3883  01EC14  CFF4 F039          	movff	prodh,___flmul@temp+1
  3884  01EC18  5038               	movf	___flmul@temp^0,w,c
  3885  01EC1A  2634               	addwf	___flmul@prod^0,f,c
  3886  01EC1C  5039               	movf	(___flmul@temp+1)^0,w,c
  3887  01EC1E  2235               	addwfc	(___flmul@prod+1)^0,f,c
  3888  01EC20  0E00               	movlw	0
  3889  01EC22  2236               	addwfc	(___flmul@prod+2)^0,f,c
  3890  01EC24  0E00               	movlw	0
  3891  01EC26  2237               	addwfc	(___flmul@prod+3)^0,f,c
  3892  01EC28  5027               	movf	(___flmul@a+2)^0,w,c
  3893  01EC2A  0223               	mulwf	(___flmul@b+2)^0,c
  3894  01EC2C  CFF3 F038          	movff	prodl,___flmul@temp
  3895  01EC30  CFF4 F039          	movff	prodh,___flmul@temp+1
  3896  01EC34  5038               	movf	___flmul@temp^0,w,c
  3897  01EC36  6E29               	movwf	??___flmul^0,c
  3898  01EC38  5039               	movf	(___flmul@temp+1)^0,w,c
  3899  01EC3A  6E2A               	movwf	(??___flmul+1)^0,c
  3900  01EC3C  6A2B               	clrf	(??___flmul+2)^0,c
  3901  01EC3E  6A2C               	clrf	(??___flmul+3)^0,c
  3902  01EC40  C02B  F02C         	movff	??___flmul+2,??___flmul+3
  3903  01EC44  C02A  F02B         	movff	??___flmul+1,??___flmul+2
  3904  01EC48  C029  F02A         	movff	??___flmul,??___flmul+1
  3905  01EC4C  6A29               	clrf	??___flmul^0,c
  3906  01EC4E  5029               	movf	??___flmul^0,w,c
  3907  01EC50  2634               	addwf	___flmul@prod^0,f,c
  3908  01EC52  502A               	movf	(??___flmul+1)^0,w,c
  3909  01EC54  2235               	addwfc	(___flmul@prod+1)^0,f,c
  3910  01EC56  502B               	movf	(??___flmul+2)^0,w,c
  3911  01EC58  2236               	addwfc	(___flmul@prod+2)^0,f,c
  3912  01EC5A  502C               	movf	(??___flmul+3)^0,w,c
  3913  01EC5C  2237               	addwfc	(___flmul@prod+3)^0,f,c
  3914  01EC5E  C02E  F029         	movff	___flmul@grs,??___flmul
  3915  01EC62  C02F  F02A         	movff	___flmul@grs+1,??___flmul+1
  3916  01EC66  C030  F02B         	movff	___flmul@grs+2,??___flmul+2
  3917  01EC6A  C031  F02C         	movff	___flmul@grs+3,??___flmul+3
  3918  01EC6E  0E19               	movlw	25
  3919  01EC70  EF3F  F0F6         	goto	u2420
  3920  01EC74                     u2425:
  3921  01EC74  90D8               	bcf	status,0,c
  3922  01EC76  322C               	rrcf	(??___flmul+3)^0,f,c
  3923  01EC78  322B               	rrcf	(??___flmul+2)^0,f,c
  3924  01EC7A  322A               	rrcf	(??___flmul+1)^0,f,c
  3925  01EC7C  3229               	rrcf	??___flmul^0,f,c
  3926  01EC7E                     u2420:
  3927  01EC7E  2EE8               	decfsz	wreg,f,c
  3928  01EC80  EF3A  F0F6         	goto	u2425
  3929  01EC84  5029               	movf	??___flmul^0,w,c
  3930  01EC86  2634               	addwf	___flmul@prod^0,f,c
  3931  01EC88  502A               	movf	(??___flmul+1)^0,w,c
  3932  01EC8A  2235               	addwfc	(___flmul@prod+1)^0,f,c
  3933  01EC8C  502B               	movf	(??___flmul+2)^0,w,c
  3934  01EC8E  2236               	addwfc	(___flmul@prod+2)^0,f,c
  3935  01EC90  502C               	movf	(??___flmul+3)^0,w,c
  3936  01EC92  2237               	addwfc	(___flmul@prod+3)^0,f,c
  3937  01EC94  C030  F031         	movff	___flmul@grs+2,___flmul@grs+3
  3938  01EC98  C02F  F030         	movff	___flmul@grs+1,___flmul@grs+2
  3939  01EC9C  C02E  F02F         	movff	___flmul@grs,___flmul@grs+1
  3940  01ECA0  6A2E               	clrf	___flmul@grs^0,c
  3941  01ECA2  5032               	movf	___flmul@aexp^0,w,c
  3942  01ECA4  C033  F029         	movff	___flmul@bexp,??___flmul
  3943  01ECA8  6A2A               	clrf	(??___flmul+1)^0,c
  3944  01ECAA  2629               	addwf	??___flmul^0,f,c
  3945  01ECAC  0E00               	movlw	0
  3946  01ECAE  222A               	addwfc	(??___flmul+1)^0,f,c
  3947  01ECB0  0E82               	movlw	130
  3948  01ECB2  2429               	addwf	??___flmul^0,w,c
  3949  01ECB4  6E38               	movwf	___flmul@temp^0,c
  3950  01ECB6  0EFF               	movlw	255
  3951  01ECB8  202A               	addwfc	(??___flmul+1)^0,w,c
  3952  01ECBA  6E39               	movwf	(___flmul@temp+1)^0,c
  3953  01ECBC  EF75  F0F6         	goto	l2632
  3954  01ECC0                     l2626:
  3955  01ECC0  90D8               	bcf	status,0,c
  3956  01ECC2  3634               	rlcf	___flmul@prod^0,f,c
  3957  01ECC4  3635               	rlcf	(___flmul@prod+1)^0,f,c
  3958  01ECC6  3636               	rlcf	(___flmul@prod+2)^0,f,c
  3959  01ECC8  3637               	rlcf	(___flmul@prod+3)^0,f,c
  3960  01ECCA  AE31               	btfss	(___flmul@grs+3)^0,7,c
  3961  01ECCC  EF6A  F0F6         	goto	u2431
  3962  01ECD0  EF6C  F0F6         	goto	u2430
  3963  01ECD4                     u2431:
  3964  01ECD4  EF6D  F0F6         	goto	l857
  3965  01ECD8                     u2430:
  3966  01ECD8  8034               	bsf	___flmul@prod^0,0,c
  3967  01ECDA                     l857:
  3968  01ECDA  90D8               	bcf	status,0,c
  3969  01ECDC  362E               	rlcf	___flmul@grs^0,f,c
  3970  01ECDE  362F               	rlcf	(___flmul@grs+1)^0,f,c
  3971  01ECE0  3630               	rlcf	(___flmul@grs+2)^0,f,c
  3972  01ECE2  3631               	rlcf	(___flmul@grs+3)^0,f,c
  3973  01ECE4  0638               	decf	___flmul@temp^0,f,c
  3974  01ECE6  A0D8               	btfss	status,0,c
  3975  01ECE8  0639               	decf	(___flmul@temp+1)^0,f,c
  3976  01ECEA                     l2632:
  3977  01ECEA  AE36               	btfss	(___flmul@prod+2)^0,7,c
  3978  01ECEC  EF7A  F0F6         	goto	u2441
  3979  01ECF0  EF7C  F0F6         	goto	u2440
  3980  01ECF4                     u2441:
  3981  01ECF4  EF60  F0F6         	goto	l2626
  3982  01ECF8                     u2440:
  3983  01ECF8  0E00               	movlw	0
  3984  01ECFA  6E32               	movwf	___flmul@aexp^0,c
  3985  01ECFC  AE31               	btfss	(___flmul@grs+3)^0,7,c
  3986  01ECFE  EF83  F0F6         	goto	u2451
  3987  01ED02  EF85  F0F6         	goto	u2450
  3988  01ED06                     u2451:
  3989  01ED06  EFA9  F0F6         	goto	l859
  3990  01ED0A                     u2450:
  3991  01ED0A  0EFF               	movlw	255
  3992  01ED0C  142E               	andwf	___flmul@grs^0,w,c
  3993  01ED0E  6E29               	movwf	??___flmul^0,c
  3994  01ED10  0EFF               	movlw	255
  3995  01ED12  142F               	andwf	(___flmul@grs+1)^0,w,c
  3996  01ED14  6E2A               	movwf	(??___flmul+1)^0,c
  3997  01ED16  0EFF               	movlw	255
  3998  01ED18  1430               	andwf	(___flmul@grs+2)^0,w,c
  3999  01ED1A  6E2B               	movwf	(??___flmul+2)^0,c
  4000  01ED1C  0E7F               	movlw	127
  4001  01ED1E  1431               	andwf	(___flmul@grs+3)^0,w,c
  4002  01ED20  6E2C               	movwf	(??___flmul+3)^0,c
  4003  01ED22  5029               	movf	??___flmul^0,w,c
  4004  01ED24  102A               	iorwf	(??___flmul+1)^0,w,c
  4005  01ED26  102B               	iorwf	(??___flmul+2)^0,w,c
  4006  01ED28  102C               	iorwf	(??___flmul+3)^0,w,c
  4007  01ED2A  B4D8               	btfsc	status,2,c
  4008  01ED2C  EF9A  F0F6         	goto	u2461
  4009  01ED30  EF9C  F0F6         	goto	u2460
  4010  01ED34                     u2461:
  4011  01ED34  EFA0  F0F6         	goto	l860
  4012  01ED38                     u2460:
  4013  01ED38                     l2640:
  4014  01ED38  0E01               	movlw	1
  4015  01ED3A  6E32               	movwf	___flmul@aexp^0,c
  4016  01ED3C  EFA9  F0F6         	goto	l859
  4017  01ED40                     l860:
  4018  01ED40  A034               	btfss	___flmul@prod^0,0,c
  4019  01ED42  EFA5  F0F6         	goto	u2471
  4020  01ED46  EFA7  F0F6         	goto	u2470
  4021  01ED4A                     u2471:
  4022  01ED4A  EFA9  F0F6         	goto	l859
  4023  01ED4E                     u2470:
  4024  01ED4E  EF9C  F0F6         	goto	l2640
  4025  01ED52                     l859:
  4026  01ED52  5032               	movf	___flmul@aexp^0,w,c
  4027  01ED54  B4D8               	btfsc	status,2,c
  4028  01ED56  EFAF  F0F6         	goto	u2481
  4029  01ED5A  EFB1  F0F6         	goto	u2480
  4030  01ED5E                     u2481:
  4031  01ED5E  EFD5  F0F6         	goto	l2652
  4032  01ED62                     u2480:
  4033  01ED62  0E01               	movlw	1
  4034  01ED64  2634               	addwf	___flmul@prod^0,f,c
  4035  01ED66  0E00               	movlw	0
  4036  01ED68  2235               	addwfc	(___flmul@prod+1)^0,f,c
  4037  01ED6A  2236               	addwfc	(___flmul@prod+2)^0,f,c
  4038  01ED6C  2237               	addwfc	(___flmul@prod+3)^0,f,c
  4039  01ED6E  A037               	btfss	(___flmul@prod+3)^0,0,c
  4040  01ED70  EFBC  F0F6         	goto	u2491
  4041  01ED74  EFBE  F0F6         	goto	u2490
  4042  01ED78                     u2491:
  4043  01ED78  EFD5  F0F6         	goto	l2652
  4044  01ED7C                     u2490:
  4045  01ED7C  C034  F029         	movff	___flmul@prod,??___flmul
  4046  01ED80  C035  F02A         	movff	___flmul@prod+1,??___flmul+1
  4047  01ED84  C036  F02B         	movff	___flmul@prod+2,??___flmul+2
  4048  01ED88  C037  F02C         	movff	___flmul@prod+3,??___flmul+3
  4049  01ED8C  342C               	rlcf	(??___flmul+3)^0,w,c
  4050  01ED8E  322C               	rrcf	(??___flmul+3)^0,f,c
  4051  01ED90  322B               	rrcf	(??___flmul+2)^0,f,c
  4052  01ED92  322A               	rrcf	(??___flmul+1)^0,f,c
  4053  01ED94  3229               	rrcf	??___flmul^0,f,c
  4054  01ED96  C029  F034         	movff	??___flmul,___flmul@prod
  4055  01ED9A  C02A  F035         	movff	??___flmul+1,___flmul@prod+1
  4056  01ED9E  C02B  F036         	movff	??___flmul+2,___flmul@prod+2
  4057  01EDA2  C02C  F037         	movff	??___flmul+3,___flmul@prod+3
  4058  01EDA6  4A38               	infsnz	___flmul@temp^0,f,c
  4059  01EDA8  2A39               	incf	(___flmul@temp+1)^0,f,c
  4060  01EDAA                     l2652:
  4061  01EDAA  BE39               	btfsc	(___flmul@temp+1)^0,7,c
  4062  01EDAC  EFE0  F0F6         	goto	u2501
  4063  01EDB0  5039               	movf	(___flmul@temp+1)^0,w,c
  4064  01EDB2  E108               	bnz	u2500
  4065  01EDB4  2838               	incf	___flmul@temp^0,w,c
  4066  01EDB6  A0D8               	btfss	status,0,c
  4067  01EDB8  EFE0  F0F6         	goto	u2501
  4068  01EDBC  EFE2  F0F6         	goto	u2500
  4069  01EDC0                     u2501:
  4070  01EDC0  EFEC  F0F6         	goto	l2656
  4071  01EDC4                     u2500:
  4072  01EDC4  0E00               	movlw	0
  4073  01EDC6  6E34               	movwf	___flmul@prod^0,c
  4074  01EDC8  0E00               	movlw	0
  4075  01EDCA  6E35               	movwf	(___flmul@prod+1)^0,c
  4076  01EDCC  0E80               	movlw	128
  4077  01EDCE  6E36               	movwf	(___flmul@prod+2)^0,c
  4078  01EDD0  0E7F               	movlw	127
  4079  01EDD2  6E37               	movwf	(___flmul@prod+3)^0,c
  4080  01EDD4  EF1A  F0F7         	goto	l2668
  4081  01EDD8                     l2656:
  4082  01EDD8  BE39               	btfsc	(___flmul@temp+1)^0,7,c
  4083  01EDDA  EFF9  F0F6         	goto	u2510
  4084  01EDDE  5039               	movf	(___flmul@temp+1)^0,w,c
  4085  01EDE0  E106               	bnz	u2511
  4086  01EDE2  0438               	decf	___flmul@temp^0,w,c
  4087  01EDE4  B0D8               	btfsc	status,0,c
  4088  01EDE6  EFF7  F0F6         	goto	u2511
  4089  01EDEA  EFF9  F0F6         	goto	u2510
  4090  01EDEE                     u2511:
  4091  01EDEE  EF05  F0F7         	goto	l867
  4092  01EDF2                     u2510:
  4093  01EDF2  0E00               	movlw	0
  4094  01EDF4  6E34               	movwf	___flmul@prod^0,c
  4095  01EDF6  0E00               	movlw	0
  4096  01EDF8  6E35               	movwf	(___flmul@prod+1)^0,c
  4097  01EDFA  0E00               	movlw	0
  4098  01EDFC  6E36               	movwf	(___flmul@prod+2)^0,c
  4099  01EDFE  0E00               	movlw	0
  4100  01EE00  6E37               	movwf	(___flmul@prod+3)^0,c
  4101  01EE02  0E00               	movlw	0
  4102  01EE04  6E2D               	movwf	___flmul@sign^0,c
  4103  01EE06  EF1A  F0F7         	goto	l2668
  4104  01EE0A                     l867:
  4105  01EE0A  C038  F033         	movff	___flmul@temp,___flmul@bexp
  4106  01EE0E  0EFF               	movlw	255
  4107  01EE10  1634               	andwf	___flmul@prod^0,f,c
  4108  01EE12  0EFF               	movlw	255
  4109  01EE14  1635               	andwf	(___flmul@prod+1)^0,f,c
  4110  01EE16  0E7F               	movlw	127
  4111  01EE18  1636               	andwf	(___flmul@prod+2)^0,f,c
  4112  01EE1A  0E00               	movlw	0
  4113  01EE1C  1637               	andwf	(___flmul@prod+3)^0,f,c
  4114  01EE1E  A033               	btfss	___flmul@bexp^0,0,c
  4115  01EE20  EF14  F0F7         	goto	u2521
  4116  01EE24  EF16  F0F7         	goto	u2520
  4117  01EE28                     u2521:
  4118  01EE28  EF17  F0F7         	goto	l2666
  4119  01EE2C                     u2520:
  4120  01EE2C  8E36               	bsf	(___flmul@prod+2)^0,7,c
  4121  01EE2E                     l2666:
  4122  01EE2E  90D8               	bcf	status,0,c
  4123  01EE30  3033               	rrcf	___flmul@bexp^0,w,c
  4124  01EE32  6E37               	movwf	(___flmul@prod+3)^0,c
  4125  01EE34                     l2668:
  4126  01EE34  502D               	movf	___flmul@sign^0,w,c
  4127  01EE36  1237               	iorwf	(___flmul@prod+3)^0,f,c
  4128  01EE38  C034  F021         	movff	___flmul@prod,?___flmul
  4129  01EE3C  C035  F022         	movff	___flmul@prod+1,?___flmul+1
  4130  01EE40  C036  F023         	movff	___flmul@prod+2,?___flmul+2
  4131  01EE44  C037  F024         	movff	___flmul@prod+3,?___flmul+3
  4132  01EE48                     l854:
  4133  01EE48  0012               	return		;funcret
  4134  01EE4A                     __end_of___flmul:
  4135                           	opt callstack 0
  4136                           
  4137 ;; *************** function ___fldiv *****************
  4138 ;; Defined at:
  4139 ;;		line 11 in file "C:\Program Files (x86)\Microchip\xc8\v2.10\pic\sources\c99\common\sprcdiv.c"
  4140 ;; Parameters:    Size  Location     Type
  4141 ;;  b               4   57[COMRAM] unsigned char 
  4142 ;;  a               4   61[COMRAM] unsigned char 
  4143 ;; Auto vars:     Size  Location     Type
  4144 ;;  grs             4   76[COMRAM] unsigned long 
  4145 ;;  rem             4   69[COMRAM] unsigned long 
  4146 ;;  new_exp         2   74[COMRAM] short 
  4147 ;;  aexp            1   81[COMRAM] unsigned char 
  4148 ;;  bexp            1   80[COMRAM] unsigned char 
  4149 ;;  sign            1   73[COMRAM] unsigned char 
  4150 ;; Return value:  Size  Location     Type
  4151 ;;                  4   57[COMRAM] unsigned char 
  4152 ;; Registers used:
  4153 ;;		wreg, status,2, status,0
  4154 ;; Tracked objects:
  4155 ;;		On entry : 0/0
  4156 ;;		On exit  : 0/0
  4157 ;;		Unchanged: 0/0
  4158 ;; Data sizes:     COMRAM   BANK0   BANK1   BANK2   BANK3   BANK4   BANK5   BANK6   BANK7   BANK8   BANK9  BANK10  BANK1
      +1  BANK12  BANK13  BANK14
  4159 ;;      Params:         8       0       0       0       0       0       0       0       0       0       0       0       
      +0       0       0       0
  4160 ;;      Locals:        13       0       0       0       0       0       0       0       0       0       0       0       
      +0       0       0       0
  4161 ;;      Temps:          4       0       0       0       0       0       0       0       0       0       0       0       
      +0       0       0       0
  4162 ;;      Totals:        25       0       0       0       0       0       0       0       0       0       0       0       
      +0       0       0       0
  4163 ;;Total ram usage:       25 bytes
  4164 ;; Hardware stack levels used:    1
  4165 ;; This function calls:
  4166 ;;		Nothing
  4167 ;; This function is called by:
  4168 ;;		_ccpNum0
  4169 ;;		_main
  4170 ;; This function uses a non-reentrant model
  4171 ;;
  4172                           
  4173                           	psect	text8
  4174  01E686                     __ptext8:
  4175                           	opt callstack 0
  4176  01E686                     ___fldiv:
  4177                           	opt callstack 29
  4178  01E686  503D               	movf	(___fldiv@b+3)^0,w,c
  4179  01E688  0B80               	andlw	128
  4180  01E68A  6E4A               	movwf	___fldiv@sign^0,c
  4181  01E68C  503D               	movf	(___fldiv@b+3)^0,w,c
  4182  01E68E  243D               	addwf	(___fldiv@b+3)^0,w,c
  4183  01E690  6E51               	movwf	___fldiv@bexp^0,c
  4184  01E692  AE3C               	btfss	(___fldiv@b+2)^0,7,c
  4185  01E694  EF4E  F0F3         	goto	u2111
  4186  01E698  EF50  F0F3         	goto	u2110
  4187  01E69C                     u2111:
  4188  01E69C  EF51  F0F3         	goto	l2412
  4189  01E6A0                     u2110:
  4190  01E6A0  8051               	bsf	___fldiv@bexp^0,0,c
  4191  01E6A2                     l2412:
  4192  01E6A2  5051               	movf	___fldiv@bexp^0,w,c
  4193  01E6A4  B4D8               	btfsc	status,2,c
  4194  01E6A6  EF57  F0F3         	goto	u2121
  4195  01E6AA  EF59  F0F3         	goto	u2120
  4196  01E6AE                     u2121:
  4197  01E6AE  EF6E  F0F3         	goto	l2422
  4198  01E6B2                     u2120:
  4199  01E6B2  2851               	incf	___fldiv@bexp^0,w,c
  4200  01E6B4  A4D8               	btfss	status,2,c
  4201  01E6B6  EF5F  F0F3         	goto	u2131
  4202  01E6BA  EF61  F0F3         	goto	u2130
  4203  01E6BE                     u2131:
  4204  01E6BE  EF69  F0F3         	goto	l2418
  4205  01E6C2                     u2130:
  4206  01E6C2  0E00               	movlw	0
  4207  01E6C4  6E3A               	movwf	___fldiv@b^0,c
  4208  01E6C6  0E00               	movlw	0
  4209  01E6C8  6E3B               	movwf	(___fldiv@b+1)^0,c
  4210  01E6CA  0E00               	movlw	0
  4211  01E6CC  6E3C               	movwf	(___fldiv@b+2)^0,c
  4212  01E6CE  0E00               	movlw	0
  4213  01E6D0  6E3D               	movwf	(___fldiv@b+3)^0,c
  4214  01E6D2                     l2418:
  4215  01E6D2  8E3C               	bsf	(___fldiv@b+2)^0,7,c
  4216  01E6D4  0E00               	movlw	0
  4217  01E6D6  6E3D               	movwf	(___fldiv@b+3)^0,c
  4218  01E6D8  EF76  F0F3         	goto	l2424
  4219  01E6DC                     l2422:
  4220  01E6DC  0E00               	movlw	0
  4221  01E6DE  6E3A               	movwf	___fldiv@b^0,c
  4222  01E6E0  0E00               	movlw	0
  4223  01E6E2  6E3B               	movwf	(___fldiv@b+1)^0,c
  4224  01E6E4  0E00               	movlw	0
  4225  01E6E6  6E3C               	movwf	(___fldiv@b+2)^0,c
  4226  01E6E8  0E00               	movlw	0
  4227  01E6EA  6E3D               	movwf	(___fldiv@b+3)^0,c
  4228  01E6EC                     l2424:
  4229  01E6EC  5041               	movf	(___fldiv@a+3)^0,w,c
  4230  01E6EE  0B80               	andlw	128
  4231  01E6F0  1A4A               	xorwf	___fldiv@sign^0,f,c
  4232  01E6F2  5041               	movf	(___fldiv@a+3)^0,w,c
  4233  01E6F4  2441               	addwf	(___fldiv@a+3)^0,w,c
  4234  01E6F6  6E52               	movwf	___fldiv@aexp^0,c
  4235  01E6F8  AE40               	btfss	(___fldiv@a+2)^0,7,c
  4236  01E6FA  EF81  F0F3         	goto	u2141
  4237  01E6FE  EF83  F0F3         	goto	u2140
  4238  01E702                     u2141:
  4239  01E702  EF84  F0F3         	goto	l2432
  4240  01E706                     u2140:
  4241  01E706  8052               	bsf	___fldiv@aexp^0,0,c
  4242  01E708                     l2432:
  4243  01E708  5052               	movf	___fldiv@aexp^0,w,c
  4244  01E70A  B4D8               	btfsc	status,2,c
  4245  01E70C  EF8A  F0F3         	goto	u2151
  4246  01E710  EF8C  F0F3         	goto	u2150
  4247  01E714                     u2151:
  4248  01E714  EFA1  F0F3         	goto	l2442
  4249  01E718                     u2150:
  4250  01E718  2852               	incf	___fldiv@aexp^0,w,c
  4251  01E71A  A4D8               	btfss	status,2,c
  4252  01E71C  EF92  F0F3         	goto	u2161
  4253  01E720  EF94  F0F3         	goto	u2160
  4254  01E724                     u2161:
  4255  01E724  EF9C  F0F3         	goto	l2438
  4256  01E728                     u2160:
  4257  01E728  0E00               	movlw	0
  4258  01E72A  6E3E               	movwf	___fldiv@a^0,c
  4259  01E72C  0E00               	movlw	0
  4260  01E72E  6E3F               	movwf	(___fldiv@a+1)^0,c
  4261  01E730  0E00               	movlw	0
  4262  01E732  6E40               	movwf	(___fldiv@a+2)^0,c
  4263  01E734  0E00               	movlw	0
  4264  01E736  6E41               	movwf	(___fldiv@a+3)^0,c
  4265  01E738                     l2438:
  4266  01E738  8E40               	bsf	(___fldiv@a+2)^0,7,c
  4267  01E73A  0E00               	movlw	0
  4268  01E73C  6E41               	movwf	(___fldiv@a+3)^0,c
  4269  01E73E  EFA9  F0F3         	goto	l2444
  4270  01E742                     l2442:
  4271  01E742  0E00               	movlw	0
  4272  01E744  6E3E               	movwf	___fldiv@a^0,c
  4273  01E746  0E00               	movlw	0
  4274  01E748  6E3F               	movwf	(___fldiv@a+1)^0,c
  4275  01E74A  0E00               	movlw	0
  4276  01E74C  6E40               	movwf	(___fldiv@a+2)^0,c
  4277  01E74E  0E00               	movlw	0
  4278  01E750  6E41               	movwf	(___fldiv@a+3)^0,c
  4279  01E752                     l2444:
  4280  01E752  503E               	movf	___fldiv@a^0,w,c
  4281  01E754  103F               	iorwf	(___fldiv@a+1)^0,w,c
  4282  01E756  1040               	iorwf	(___fldiv@a+2)^0,w,c
  4283  01E758  1041               	iorwf	(___fldiv@a+3)^0,w,c
  4284  01E75A  A4D8               	btfss	status,2,c
  4285  01E75C  EFB2  F0F3         	goto	u2171
  4286  01E760  EFB4  F0F3         	goto	u2170
  4287  01E764                     u2171:
  4288  01E764  EFCC  F0F3         	goto	l2456
  4289  01E768                     u2170:
  4290  01E768  0E00               	movlw	0
  4291  01E76A  6E3A               	movwf	___fldiv@b^0,c
  4292  01E76C  0E00               	movlw	0
  4293  01E76E  6E3B               	movwf	(___fldiv@b+1)^0,c
  4294  01E770  0E00               	movlw	0
  4295  01E772  6E3C               	movwf	(___fldiv@b+2)^0,c
  4296  01E774  0E00               	movlw	0
  4297  01E776  6E3D               	movwf	(___fldiv@b+3)^0,c
  4298  01E778  0E80               	movlw	128
  4299  01E77A  123C               	iorwf	(___fldiv@b+2)^0,f,c
  4300  01E77C  0E7F               	movlw	127
  4301  01E77E  123D               	iorwf	(___fldiv@b+3)^0,f,c
  4302  01E780                     l2450:
  4303  01E780  504A               	movf	___fldiv@sign^0,w,c
  4304  01E782  123D               	iorwf	(___fldiv@b+3)^0,f,c
  4305  01E784  C03A  F03A         	movff	___fldiv@b,?___fldiv
  4306  01E788  C03B  F03B         	movff	___fldiv@b+1,?___fldiv+1
  4307  01E78C  C03C  F03C         	movff	___fldiv@b+2,?___fldiv+2
  4308  01E790  C03D  F03D         	movff	___fldiv@b+3,?___fldiv+3
  4309  01E794  EF0F  F0F5         	goto	l818
  4310  01E798                     l2456:
  4311  01E798  5051               	movf	___fldiv@bexp^0,w,c
  4312  01E79A  A4D8               	btfss	status,2,c
  4313  01E79C  EFD2  F0F3         	goto	u2181
  4314  01E7A0  EFD4  F0F3         	goto	u2180
  4315  01E7A4                     u2181:
  4316  01E7A4  EFDE  F0F3         	goto	l2464
  4317  01E7A8                     u2180:
  4318  01E7A8  0E00               	movlw	0
  4319  01E7AA  6E3A               	movwf	?___fldiv^0,c
  4320  01E7AC  0E00               	movlw	0
  4321  01E7AE  6E3B               	movwf	(?___fldiv+1)^0,c
  4322  01E7B0  0E00               	movlw	0
  4323  01E7B2  6E3C               	movwf	(?___fldiv+2)^0,c
  4324  01E7B4  0E00               	movlw	0
  4325  01E7B6  6E3D               	movwf	(?___fldiv+3)^0,c
  4326  01E7B8  EF0F  F0F5         	goto	l818
  4327  01E7BC                     l2464:
  4328  01E7BC  5052               	movf	___fldiv@aexp^0,w,c
  4329  01E7BE  C051  F042         	movff	___fldiv@bexp,??___fldiv
  4330  01E7C2  6A43               	clrf	(??___fldiv+1)^0,c
  4331  01E7C4  5E42               	subwf	??___fldiv^0,f,c
  4332  01E7C6  0E00               	movlw	0
  4333  01E7C8  5A43               	subwfb	(??___fldiv+1)^0,f,c
  4334  01E7CA  0E7F               	movlw	127
  4335  01E7CC  2442               	addwf	??___fldiv^0,w,c
  4336  01E7CE  6E4B               	movwf	___fldiv@new_exp^0,c
  4337  01E7D0  0E00               	movlw	0
  4338  01E7D2  2043               	addwfc	(??___fldiv+1)^0,w,c
  4339  01E7D4  6E4C               	movwf	(___fldiv@new_exp+1)^0,c
  4340  01E7D6  C03A  F046         	movff	___fldiv@b,___fldiv@rem
  4341  01E7DA  C03B  F047         	movff	___fldiv@b+1,___fldiv@rem+1
  4342  01E7DE  C03C  F048         	movff	___fldiv@b+2,___fldiv@rem+2
  4343  01E7E2  C03D  F049         	movff	___fldiv@b+3,___fldiv@rem+3
  4344  01E7E6  0E00               	movlw	0
  4345  01E7E8  6E3A               	movwf	___fldiv@b^0,c
  4346  01E7EA  0E00               	movlw	0
  4347  01E7EC  6E3B               	movwf	(___fldiv@b+1)^0,c
  4348  01E7EE  0E00               	movlw	0
  4349  01E7F0  6E3C               	movwf	(___fldiv@b+2)^0,c
  4350  01E7F2  0E00               	movlw	0
  4351  01E7F4  6E3D               	movwf	(___fldiv@b+3)^0,c
  4352  01E7F6  0E00               	movlw	0
  4353  01E7F8  6E4D               	movwf	___fldiv@grs^0,c
  4354  01E7FA  0E00               	movlw	0
  4355  01E7FC  6E4E               	movwf	(___fldiv@grs+1)^0,c
  4356  01E7FE  0E00               	movlw	0
  4357  01E800  6E4F               	movwf	(___fldiv@grs+2)^0,c
  4358  01E802  0E00               	movlw	0
  4359  01E804  6E50               	movwf	(___fldiv@grs+3)^0,c
  4360  01E806  0E00               	movlw	0
  4361  01E808  6E52               	movwf	___fldiv@aexp^0,c
  4362  01E80A  EF3F  F0F4         	goto	l820
  4363  01E80E                     l2474:
  4364  01E80E  5052               	movf	___fldiv@aexp^0,w,c
  4365  01E810  B4D8               	btfsc	status,2,c
  4366  01E812  EF0D  F0F4         	goto	u2191
  4367  01E816  EF0F  F0F4         	goto	u2190
  4368  01E81A                     u2191:
  4369  01E81A  EF26  F0F4         	goto	l2482
  4370  01E81E                     u2190:
  4371  01E81E  90D8               	bcf	status,0,c
  4372  01E820  3646               	rlcf	___fldiv@rem^0,f,c
  4373  01E822  3647               	rlcf	(___fldiv@rem+1)^0,f,c
  4374  01E824  3648               	rlcf	(___fldiv@rem+2)^0,f,c
  4375  01E826  3649               	rlcf	(___fldiv@rem+3)^0,f,c
  4376  01E828  90D8               	bcf	status,0,c
  4377  01E82A  363A               	rlcf	___fldiv@b^0,f,c
  4378  01E82C  363B               	rlcf	(___fldiv@b+1)^0,f,c
  4379  01E82E  363C               	rlcf	(___fldiv@b+2)^0,f,c
  4380  01E830  363D               	rlcf	(___fldiv@b+3)^0,f,c
  4381  01E832  AE50               	btfss	(___fldiv@grs+3)^0,7,c
  4382  01E834  EF1E  F0F4         	goto	u2201
  4383  01E838  EF20  F0F4         	goto	u2200
  4384  01E83C                     u2201:
  4385  01E83C  EF21  F0F4         	goto	l823
  4386  01E840                     u2200:
  4387  01E840  803A               	bsf	___fldiv@b^0,0,c
  4388  01E842                     l823:
  4389  01E842  90D8               	bcf	status,0,c
  4390  01E844  364D               	rlcf	___fldiv@grs^0,f,c
  4391  01E846  364E               	rlcf	(___fldiv@grs+1)^0,f,c
  4392  01E848  364F               	rlcf	(___fldiv@grs+2)^0,f,c
  4393  01E84A  3650               	rlcf	(___fldiv@grs+3)^0,f,c
  4394  01E84C                     l2482:
  4395  01E84C  503E               	movf	___fldiv@a^0,w,c
  4396  01E84E  5C46               	subwf	___fldiv@rem^0,w,c
  4397  01E850  503F               	movf	(___fldiv@a+1)^0,w,c
  4398  01E852  5847               	subwfb	(___fldiv@rem+1)^0,w,c
  4399  01E854  5040               	movf	(___fldiv@a+2)^0,w,c
  4400  01E856  5848               	subwfb	(___fldiv@rem+2)^0,w,c
  4401  01E858  5041               	movf	(___fldiv@a+3)^0,w,c
  4402  01E85A  5849               	subwfb	(___fldiv@rem+3)^0,w,c
  4403  01E85C  A0D8               	btfss	status,0,c
  4404  01E85E  EF33  F0F4         	goto	u2211
  4405  01E862  EF35  F0F4         	goto	u2210
  4406  01E866                     u2211:
  4407  01E866  EF3E  F0F4         	goto	l2488
  4408  01E86A                     u2210:
  4409  01E86A  8C50               	bsf	(___fldiv@grs+3)^0,6,c
  4410  01E86C  503E               	movf	___fldiv@a^0,w,c
  4411  01E86E  5E46               	subwf	___fldiv@rem^0,f,c
  4412  01E870  503F               	movf	(___fldiv@a+1)^0,w,c
  4413  01E872  5A47               	subwfb	(___fldiv@rem+1)^0,f,c
  4414  01E874  5040               	movf	(___fldiv@a+2)^0,w,c
  4415  01E876  5A48               	subwfb	(___fldiv@rem+2)^0,f,c
  4416  01E878  5041               	movf	(___fldiv@a+3)^0,w,c
  4417  01E87A  5A49               	subwfb	(___fldiv@rem+3)^0,f,c
  4418  01E87C                     l2488:
  4419  01E87C  2A52               	incf	___fldiv@aexp^0,f,c
  4420  01E87E                     l820:
  4421  01E87E  0E19               	movlw	25
  4422  01E880  6452               	cpfsgt	___fldiv@aexp^0,c
  4423  01E882  EF45  F0F4         	goto	u2221
  4424  01E886  EF47  F0F4         	goto	u2220
  4425  01E88A                     u2221:
  4426  01E88A  EF07  F0F4         	goto	l2474
  4427  01E88E                     u2220:
  4428  01E88E  5046               	movf	___fldiv@rem^0,w,c
  4429  01E890  1047               	iorwf	(___fldiv@rem+1)^0,w,c
  4430  01E892  1048               	iorwf	(___fldiv@rem+2)^0,w,c
  4431  01E894  1049               	iorwf	(___fldiv@rem+3)^0,w,c
  4432  01E896  B4D8               	btfsc	status,2,c
  4433  01E898  EF50  F0F4         	goto	u2231
  4434  01E89C  EF52  F0F4         	goto	u2230
  4435  01E8A0                     u2231:
  4436  01E8A0  EF6A  F0F4         	goto	l2500
  4437  01E8A4                     u2230:
  4438  01E8A4  804D               	bsf	___fldiv@grs^0,0,c
  4439  01E8A6  EF6A  F0F4         	goto	l2500
  4440  01E8AA                     l2494:
  4441  01E8AA  90D8               	bcf	status,0,c
  4442  01E8AC  363A               	rlcf	___fldiv@b^0,f,c
  4443  01E8AE  363B               	rlcf	(___fldiv@b+1)^0,f,c
  4444  01E8B0  363C               	rlcf	(___fldiv@b+2)^0,f,c
  4445  01E8B2  363D               	rlcf	(___fldiv@b+3)^0,f,c
  4446  01E8B4  AE50               	btfss	(___fldiv@grs+3)^0,7,c
  4447  01E8B6  EF5F  F0F4         	goto	u2241
  4448  01E8BA  EF61  F0F4         	goto	u2240
  4449  01E8BE                     u2241:
  4450  01E8BE  EF62  F0F4         	goto	l829
  4451  01E8C2                     u2240:
  4452  01E8C2  803A               	bsf	___fldiv@b^0,0,c
  4453  01E8C4                     l829:
  4454  01E8C4  90D8               	bcf	status,0,c
  4455  01E8C6  364D               	rlcf	___fldiv@grs^0,f,c
  4456  01E8C8  364E               	rlcf	(___fldiv@grs+1)^0,f,c
  4457  01E8CA  364F               	rlcf	(___fldiv@grs+2)^0,f,c
  4458  01E8CC  3650               	rlcf	(___fldiv@grs+3)^0,f,c
  4459  01E8CE  064B               	decf	___fldiv@new_exp^0,f,c
  4460  01E8D0  A0D8               	btfss	status,0,c
  4461  01E8D2  064C               	decf	(___fldiv@new_exp+1)^0,f,c
  4462  01E8D4                     l2500:
  4463  01E8D4  AE3C               	btfss	(___fldiv@b+2)^0,7,c
  4464  01E8D6  EF6F  F0F4         	goto	u2251
  4465  01E8DA  EF71  F0F4         	goto	u2250
  4466  01E8DE                     u2251:
  4467  01E8DE  EF55  F0F4         	goto	l2494
  4468  01E8E2                     u2250:
  4469  01E8E2  0E00               	movlw	0
  4470  01E8E4  6E52               	movwf	___fldiv@aexp^0,c
  4471  01E8E6  AE50               	btfss	(___fldiv@grs+3)^0,7,c
  4472  01E8E8  EF78  F0F4         	goto	u2261
  4473  01E8EC  EF7A  F0F4         	goto	u2260
  4474  01E8F0                     u2261:
  4475  01E8F0  EF9E  F0F4         	goto	l831
  4476  01E8F4                     u2260:
  4477  01E8F4  0EFF               	movlw	255
  4478  01E8F6  144D               	andwf	___fldiv@grs^0,w,c
  4479  01E8F8  6E42               	movwf	??___fldiv^0,c
  4480  01E8FA  0EFF               	movlw	255
  4481  01E8FC  144E               	andwf	(___fldiv@grs+1)^0,w,c
  4482  01E8FE  6E43               	movwf	(??___fldiv+1)^0,c
  4483  01E900  0EFF               	movlw	255
  4484  01E902  144F               	andwf	(___fldiv@grs+2)^0,w,c
  4485  01E904  6E44               	movwf	(??___fldiv+2)^0,c
  4486  01E906  0E7F               	movlw	127
  4487  01E908  1450               	andwf	(___fldiv@grs+3)^0,w,c
  4488  01E90A  6E45               	movwf	(??___fldiv+3)^0,c
  4489  01E90C  5042               	movf	??___fldiv^0,w,c
  4490  01E90E  1043               	iorwf	(??___fldiv+1)^0,w,c
  4491  01E910  1044               	iorwf	(??___fldiv+2)^0,w,c
  4492  01E912  1045               	iorwf	(??___fldiv+3)^0,w,c
  4493  01E914  B4D8               	btfsc	status,2,c
  4494  01E916  EF8F  F0F4         	goto	u2271
  4495  01E91A  EF91  F0F4         	goto	u2270
  4496  01E91E                     u2271:
  4497  01E91E  EF95  F0F4         	goto	l832
  4498  01E922                     u2270:
  4499  01E922                     l2508:
  4500  01E922  0E01               	movlw	1
  4501  01E924  6E52               	movwf	___fldiv@aexp^0,c
  4502  01E926  EF9E  F0F4         	goto	l831
  4503  01E92A                     l832:
  4504  01E92A  A03A               	btfss	___fldiv@b^0,0,c
  4505  01E92C  EF9A  F0F4         	goto	u2281
  4506  01E930  EF9C  F0F4         	goto	u2280
  4507  01E934                     u2281:
  4508  01E934  EF9E  F0F4         	goto	l831
  4509  01E938                     u2280:
  4510  01E938  EF91  F0F4         	goto	l2508
  4511  01E93C                     l831:
  4512  01E93C  5052               	movf	___fldiv@aexp^0,w,c
  4513  01E93E  B4D8               	btfsc	status,2,c
  4514  01E940  EFA4  F0F4         	goto	u2291
  4515  01E944  EFA6  F0F4         	goto	u2290
  4516  01E948                     u2291:
  4517  01E948  EFCA  F0F4         	goto	l2520
  4518  01E94C                     u2290:
  4519  01E94C  0E01               	movlw	1
  4520  01E94E  263A               	addwf	___fldiv@b^0,f,c
  4521  01E950  0E00               	movlw	0
  4522  01E952  223B               	addwfc	(___fldiv@b+1)^0,f,c
  4523  01E954  223C               	addwfc	(___fldiv@b+2)^0,f,c
  4524  01E956  223D               	addwfc	(___fldiv@b+3)^0,f,c
  4525  01E958  A03D               	btfss	(___fldiv@b+3)^0,0,c
  4526  01E95A  EFB1  F0F4         	goto	u2301
  4527  01E95E  EFB3  F0F4         	goto	u2300
  4528  01E962                     u2301:
  4529  01E962  EFCA  F0F4         	goto	l2520
  4530  01E966                     u2300:
  4531  01E966  C03A  F042         	movff	___fldiv@b,??___fldiv
  4532  01E96A  C03B  F043         	movff	___fldiv@b+1,??___fldiv+1
  4533  01E96E  C03C  F044         	movff	___fldiv@b+2,??___fldiv+2
  4534  01E972  C03D  F045         	movff	___fldiv@b+3,??___fldiv+3
  4535  01E976  3445               	rlcf	(??___fldiv+3)^0,w,c
  4536  01E978  3245               	rrcf	(??___fldiv+3)^0,f,c
  4537  01E97A  3244               	rrcf	(??___fldiv+2)^0,f,c
  4538  01E97C  3243               	rrcf	(??___fldiv+1)^0,f,c
  4539  01E97E  3242               	rrcf	??___fldiv^0,f,c
  4540  01E980  C042  F03A         	movff	??___fldiv,___fldiv@b
  4541  01E984  C043  F03B         	movff	??___fldiv+1,___fldiv@b+1
  4542  01E988  C044  F03C         	movff	??___fldiv+2,___fldiv@b+2
  4543  01E98C  C045  F03D         	movff	??___fldiv+3,___fldiv@b+3
  4544  01E990  4A4B               	infsnz	___fldiv@new_exp^0,f,c
  4545  01E992  2A4C               	incf	(___fldiv@new_exp+1)^0,f,c
  4546  01E994                     l2520:
  4547  01E994  BE4C               	btfsc	(___fldiv@new_exp+1)^0,7,c
  4548  01E996  EFD5  F0F4         	goto	u2311
  4549  01E99A  504C               	movf	(___fldiv@new_exp+1)^0,w,c
  4550  01E99C  E108               	bnz	u2310
  4551  01E99E  284B               	incf	___fldiv@new_exp^0,w,c
  4552  01E9A0  A0D8               	btfss	status,0,c
  4553  01E9A2  EFD5  F0F4         	goto	u2311
  4554  01E9A6  EFD7  F0F4         	goto	u2310
  4555  01E9AA                     u2311:
  4556  01E9AA  EFE2  F0F4         	goto	l2524
  4557  01E9AE                     u2310:
  4558  01E9AE  0E00               	movlw	0
  4559  01E9B0  6E4C               	movwf	(___fldiv@new_exp+1)^0,c
  4560  01E9B2  684B               	setf	___fldiv@new_exp^0,c
  4561  01E9B4  0E00               	movlw	0
  4562  01E9B6  6E3A               	movwf	___fldiv@b^0,c
  4563  01E9B8  0E00               	movlw	0
  4564  01E9BA  6E3B               	movwf	(___fldiv@b+1)^0,c
  4565  01E9BC  0E00               	movlw	0
  4566  01E9BE  6E3C               	movwf	(___fldiv@b+2)^0,c
  4567  01E9C0  0E00               	movlw	0
  4568  01E9C2  6E3D               	movwf	(___fldiv@b+3)^0,c
  4569  01E9C4                     l2524:
  4570  01E9C4  BE4C               	btfsc	(___fldiv@new_exp+1)^0,7,c
  4571  01E9C6  EFEF  F0F4         	goto	u2320
  4572  01E9CA  504C               	movf	(___fldiv@new_exp+1)^0,w,c
  4573  01E9CC  E106               	bnz	u2321
  4574  01E9CE  044B               	decf	___fldiv@new_exp^0,w,c
  4575  01E9D0  B0D8               	btfsc	status,0,c
  4576  01E9D2  EFED  F0F4         	goto	u2321
  4577  01E9D6  EFEF  F0F4         	goto	u2320
  4578  01E9DA                     u2321:
  4579  01E9DA  EFFD  F0F4         	goto	l2528
  4580  01E9DE                     u2320:
  4581  01E9DE  0E00               	movlw	0
  4582  01E9E0  6E4C               	movwf	(___fldiv@new_exp+1)^0,c
  4583  01E9E2  0E00               	movlw	0
  4584  01E9E4  6E4B               	movwf	___fldiv@new_exp^0,c
  4585  01E9E6  0E00               	movlw	0
  4586  01E9E8  6E3A               	movwf	___fldiv@b^0,c
  4587  01E9EA  0E00               	movlw	0
  4588  01E9EC  6E3B               	movwf	(___fldiv@b+1)^0,c
  4589  01E9EE  0E00               	movlw	0
  4590  01E9F0  6E3C               	movwf	(___fldiv@b+2)^0,c
  4591  01E9F2  0E00               	movlw	0
  4592  01E9F4  6E3D               	movwf	(___fldiv@b+3)^0,c
  4593  01E9F6  0E00               	movlw	0
  4594  01E9F8  6E4A               	movwf	___fldiv@sign^0,c
  4595  01E9FA                     l2528:
  4596  01E9FA  C04B  F051         	movff	___fldiv@new_exp,___fldiv@bexp
  4597  01E9FE  A051               	btfss	___fldiv@bexp^0,0,c
  4598  01EA00  EF04  F0F5         	goto	u2331
  4599  01EA04  EF06  F0F5         	goto	u2330
  4600  01EA08                     u2331:
  4601  01EA08  EF09  F0F5         	goto	l2534
  4602  01EA0C                     u2330:
  4603  01EA0C  8E3C               	bsf	(___fldiv@b+2)^0,7,c
  4604  01EA0E  EF0A  F0F5         	goto	l2536
  4605  01EA12                     l2534:
  4606  01EA12  9E3C               	bcf	(___fldiv@b+2)^0,7,c
  4607  01EA14                     l2536:
  4608  01EA14  90D8               	bcf	status,0,c
  4609  01EA16  3051               	rrcf	___fldiv@bexp^0,w,c
  4610  01EA18  6E3D               	movwf	(___fldiv@b+3)^0,c
  4611  01EA1A  EFC0  F0F3         	goto	l2450
  4612  01EA1E                     l818:
  4613  01EA1E  0012               	return		;funcret
  4614  01EA20                     __end_of___fldiv:
  4615                           	opt callstack 0
  4616                           
  4617 ;; *************** function _adc_init *****************
  4618 ;; Defined at:
  4619 ;;		line 9 in file "adc.c"
  4620 ;; Parameters:    Size  Location     Type
  4621 ;;		None
  4622 ;; Auto vars:     Size  Location     Type
  4623 ;;		None
  4624 ;; Return value:  Size  Location     Type
  4625 ;;                  1    wreg      void 
  4626 ;; Registers used:
  4627 ;;		wreg, status,2
  4628 ;; Tracked objects:
  4629 ;;		On entry : 0/0
  4630 ;;		On exit  : 0/0
  4631 ;;		Unchanged: 0/0
  4632 ;; Data sizes:     COMRAM   BANK0   BANK1   BANK2   BANK3   BANK4   BANK5   BANK6   BANK7   BANK8   BANK9  BANK10  BANK1
      +1  BANK12  BANK13  BANK14
  4633 ;;      Params:         0       0       0       0       0       0       0       0       0       0       0       0       
      +0       0       0       0
  4634 ;;      Locals:         0       0       0       0       0       0       0       0       0       0       0       0       
      +0       0       0       0
  4635 ;;      Temps:          0       0       0       0       0       0       0       0       0       0       0       0       
      +0       0       0       0
  4636 ;;      Totals:         0       0       0       0       0       0       0       0       0       0       0       0       
      +0       0       0       0
  4637 ;;Total ram usage:        0 bytes
  4638 ;; Hardware stack levels used:    1
  4639 ;; This function calls:
  4640 ;;		Nothing
  4641 ;; This function is called by:
  4642 ;;		_main
  4643 ;; This function uses a non-reentrant model
  4644 ;;
  4645                           
  4646                           	psect	text9
  4647  01DAE0                     __ptext9:
  4648                           	opt callstack 0
  4649  01DAE0                     _adc_init:
  4650                           	opt callstack 30
  4651  01DAE0                     
  4652                           ;adc.c: 10:     TRISAbits.TRISA0 = 1;
  4653  01DAE0  8088               	bsf	136,0,c	;volatile
  4654  01DAE2                     
  4655                           ;adc.c: 13:     ANSELC = 0x0;
  4656  01DAE2  0E00               	movlw	0
  4657  01DAE4  010F               	movlb	15	; () banked
  4658  01DAE6  6F21               	movwf	33,b	;volatile
  4659  01DAE8                     
  4660                           ; BSR set to: 15
  4661  01DAE8  0012               	return		;funcret
  4662  01DAEA                     __end_of_adc_init:
  4663                           	opt callstack 0
  4664                           
  4665 ;; *************** function _adcNum0 *****************
  4666 ;; Defined at:
  4667 ;;		line 19 in file "adc.c"
  4668 ;; Parameters:    Size  Location     Type
  4669 ;;		None
  4670 ;; Auto vars:     Size  Location     Type
  4671 ;;		None
  4672 ;; Return value:  Size  Location     Type
  4673 ;;                  4    0[COMRAM] unsigned long 
  4674 ;; Registers used:
  4675 ;;		wreg, status,2, status,0
  4676 ;; Tracked objects:
  4677 ;;		On entry : 0/0
  4678 ;;		On exit  : 0/0
  4679 ;;		Unchanged: 0/0
  4680 ;; Data sizes:     COMRAM   BANK0   BANK1   BANK2   BANK3   BANK4   BANK5   BANK6   BANK7   BANK8   BANK9  BANK10  BANK1
      +1  BANK12  BANK13  BANK14
  4681 ;;      Params:         4       0       0       0       0       0       0       0       0       0       0       0       
      +0       0       0       0
  4682 ;;      Locals:         0       0       0       0       0       0       0       0       0       0       0       0       
      +0       0       0       0
  4683 ;;      Temps:          3       0       0       0       0       0       0       0       0       0       0       0       
      +0       0       0       0
  4684 ;;      Totals:         7       0       0       0       0       0       0       0       0       0       0       0       
      +0       0       0       0
  4685 ;;Total ram usage:        7 bytes
  4686 ;; Hardware stack levels used:    1
  4687 ;; This function calls:
  4688 ;;		Nothing
  4689 ;; This function is called by:
  4690 ;;		_main
  4691 ;; This function uses a non-reentrant model
  4692 ;;
  4693                           
  4694                           	psect	text10
  4695  01DB82                     __ptext10:
  4696                           	opt callstack 0
  4697  01DB82                     _adcNum0:
  4698                           	opt callstack 30
  4699  01DB82                     
  4700                           ;adc.c: 20:     ADCON0 = 0x00;
  4701  01DB82  0E00               	movlw	0
  4702  01DB84  6E60               	movwf	96,c	;volatile
  4703  01DB86                     
  4704                           ;adc.c: 21:     ADCON0bits.ADON = 1;
  4705  01DB86  8E60               	bsf	96,7,c	;volatile
  4706  01DB88                     
  4707                           ;adc.c: 22:     ADCON0bits.GO = 1;
  4708  01DB88  8060               	bsf	96,0,c	;volatile
  4709  01DB8A                     l230:
  4710  01DB8A  B060               	btfsc	96,0,c	;volatile
  4711  01DB8C  EFCA  F0ED         	goto	u2791
  4712  01DB90  EFCC  F0ED         	goto	u2790
  4713  01DB94                     u2791:
  4714  01DB94  EFC5  F0ED         	goto	l230
  4715  01DB98                     u2790:
  4716  01DB98                     
  4717                           ;adc.c: 26:     ADCON0bits.ADON = 0;
  4718  01DB98  9E60               	bcf	96,7,c	;volatile
  4719  01DB9A                     
  4720                           ;adc.c: 29:     return (ADRES >> 6);
  4721  01DB9A  CF63 F005          	movff	3939,??_adcNum0	;volatile
  4722  01DB9E  CF64 F006          	movff	3940,??_adcNum0+1	;volatile
  4723  01DBA2  0E06               	movlw	6
  4724  01DBA4  6E07               	movwf	(??_adcNum0+2)^0,c
  4725  01DBA6                     u2805:
  4726  01DBA6  90D8               	bcf	status,0,c
  4727  01DBA8  3206               	rrcf	(??_adcNum0+1)^0,f,c
  4728  01DBAA  3205               	rrcf	??_adcNum0^0,f,c
  4729  01DBAC  2E07               	decfsz	(??_adcNum0+2)^0,f,c
  4730  01DBAE  EFD3  F0ED         	goto	u2805
  4731  01DBB2  C005  F001         	movff	??_adcNum0,?_adcNum0
  4732  01DBB6  C006  F002         	movff	??_adcNum0+1,?_adcNum0+1
  4733  01DBBA  6A03               	clrf	(?_adcNum0+2)^0,c
  4734  01DBBC  6A04               	clrf	(?_adcNum0+3)^0,c
  4735  01DBBE  0012               	return		;funcret
  4736  01DBC0                     __end_of_adcNum0:
  4737                           	opt callstack 0
  4738                           
  4739 ;; *************** function _abs *****************
  4740 ;; Defined at:
  4741 ;;		line 1 in file "C:\Program Files (x86)\Microchip\xc8\v2.10\pic\sources\c99\common\abs.c"
  4742 ;; Parameters:    Size  Location     Type
  4743 ;;  a               2    0[COMRAM] int 
  4744 ;; Auto vars:     Size  Location     Type
  4745 ;;		None
  4746 ;; Return value:  Size  Location     Type
  4747 ;;                  2    0[COMRAM] int 
  4748 ;; Registers used:
  4749 ;;		wreg, status,2, status,0
  4750 ;; Tracked objects:
  4751 ;;		On entry : 0/0
  4752 ;;		On exit  : 0/0
  4753 ;;		Unchanged: 0/0
  4754 ;; Data sizes:     COMRAM   BANK0   BANK1   BANK2   BANK3   BANK4   BANK5   BANK6   BANK7   BANK8   BANK9  BANK10  BANK1
      +1  BANK12  BANK13  BANK14
  4755 ;;      Params:         2       0       0       0       0       0       0       0       0       0       0       0       
      +0       0       0       0
  4756 ;;      Locals:         0       0       0       0       0       0       0       0       0       0       0       0       
      +0       0       0       0
  4757 ;;      Temps:          2       0       0       0       0       0       0       0       0       0       0       0       
      +0       0       0       0
  4758 ;;      Totals:         4       0       0       0       0       0       0       0       0       0       0       0       
      +0       0       0       0
  4759 ;;Total ram usage:        4 bytes
  4760 ;; Hardware stack levels used:    1
  4761 ;; This function calls:
  4762 ;;		Nothing
  4763 ;; This function is called by:
  4764 ;;		_main
  4765 ;; This function uses a non-reentrant model
  4766 ;;
  4767                           
  4768                           	psect	text11
  4769  01DBC0                     __ptext11:
  4770                           	opt callstack 0
  4771  01DBC0                     _abs:
  4772                           	opt callstack 30
  4773  01DBC0  BE02               	btfsc	(abs@a+1)^0,7,c
  4774  01DBC2  EFED  F0ED         	goto	u2810
  4775  01DBC6  5002               	movf	(abs@a+1)^0,w,c
  4776  01DBC8  E106               	bnz	u2811
  4777  01DBCA  0401               	decf	abs@a^0,w,c
  4778  01DBCC  B0D8               	btfsc	status,0,c
  4779  01DBCE  EFEB  F0ED         	goto	u2811
  4780  01DBD2  EFED  F0ED         	goto	u2810
  4781  01DBD6                     u2811:
  4782  01DBD6  EFFB  F0ED         	goto	l911
  4783  01DBDA                     u2810:
  4784  01DBDA  C001  F003         	movff	abs@a,??_abs
  4785  01DBDE  C002  F004         	movff	abs@a+1,??_abs+1
  4786  01DBE2  1E03               	comf	??_abs^0,f,c
  4787  01DBE4  1E04               	comf	(??_abs+1)^0,f,c
  4788  01DBE6  4A03               	infsnz	??_abs^0,f,c
  4789  01DBE8  2A04               	incf	(??_abs+1)^0,f,c
  4790  01DBEA  C003  F001         	movff	??_abs,?_abs
  4791  01DBEE  C004  F002         	movff	??_abs+1,?_abs+1
  4792  01DBF2  EFFF  F0ED         	goto	l914
  4793  01DBF6                     l911:
  4794  01DBF6  C001  F001         	movff	abs@a,?_abs
  4795  01DBFA  C002  F002         	movff	abs@a+1,?_abs+1
  4796  01DBFE                     l914:
  4797  01DBFE  0012               	return		;funcret
  4798  01DC00                     __end_of_abs:
  4799                           	opt callstack 0
  4800                           
  4801 ;; *************** function ___wmul *****************
  4802 ;; Defined at:
  4803 ;;		line 15 in file "C:\Program Files (x86)\Microchip\xc8\v2.10\pic\sources\c99\common\Umul16.c"
  4804 ;; Parameters:    Size  Location     Type
  4805 ;;  multiplier      2    4[COMRAM] unsigned int 
  4806 ;;  multiplicand    2    6[COMRAM] unsigned int 
  4807 ;; Auto vars:     Size  Location     Type
  4808 ;;  product         2    8[COMRAM] unsigned int 
  4809 ;; Return value:  Size  Location     Type
  4810 ;;                  2    4[COMRAM] unsigned int 
  4811 ;; Registers used:
  4812 ;;		wreg, status,2, status,0, prodl, prodh
  4813 ;; Tracked objects:
  4814 ;;		On entry : 0/0
  4815 ;;		On exit  : 0/0
  4816 ;;		Unchanged: 0/0
  4817 ;; Data sizes:     COMRAM   BANK0   BANK1   BANK2   BANK3   BANK4   BANK5   BANK6   BANK7   BANK8   BANK9  BANK10  BANK1
      +1  BANK12  BANK13  BANK14
  4818 ;;      Params:         4       0       0       0       0       0       0       0       0       0       0       0       
      +0       0       0       0
  4819 ;;      Locals:         2       0       0       0       0       0       0       0       0       0       0       0       
      +0       0       0       0
  4820 ;;      Temps:          0       0       0       0       0       0       0       0       0       0       0       0       
      +0       0       0       0
  4821 ;;      Totals:         6       0       0       0       0       0       0       0       0       0       0       0       
      +0       0       0       0
  4822 ;;Total ram usage:        6 bytes
  4823 ;; Hardware stack levels used:    1
  4824 ;; This function calls:
  4825 ;;		Nothing
  4826 ;; This function is called by:
  4827 ;;		_main
  4828 ;; This function uses a non-reentrant model
  4829 ;;
  4830                           
  4831                           	psect	text12
  4832  01DAEA                     __ptext12:
  4833                           	opt callstack 0
  4834  01DAEA                     ___wmul:
  4835                           	opt callstack 30
  4836  01DAEA  5005               	movf	___wmul@multiplier^0,w,c
  4837  01DAEC  0207               	mulwf	___wmul@multiplicand^0,c
  4838  01DAEE  CFF3 F009          	movff	prodl,___wmul@product
  4839  01DAF2  CFF4 F00A          	movff	prodh,___wmul@product+1
  4840  01DAF6  5005               	movf	___wmul@multiplier^0,w,c
  4841  01DAF8  0208               	mulwf	(___wmul@multiplicand+1)^0,c
  4842  01DAFA  50F3               	movf	243,w,c
  4843  01DAFC  260A               	addwf	(___wmul@product+1)^0,f,c
  4844  01DAFE  5006               	movf	(___wmul@multiplier+1)^0,w,c
  4845  01DB00  0207               	mulwf	___wmul@multiplicand^0,c
  4846  01DB02  50F3               	movf	243,w,c
  4847  01DB04  260A               	addwf	(___wmul@product+1)^0,f,c
  4848  01DB06  C009  F005         	movff	___wmul@product,?___wmul
  4849  01DB0A  C00A  F006         	movff	___wmul@product+1,?___wmul+1
  4850  01DB0E  0012               	return		;funcret
  4851  01DB10                     __end_of___wmul:
  4852                           	opt callstack 0
  4853                           
  4854 ;; *************** function ___llmod *****************
  4855 ;; Defined at:
  4856 ;;		line 7 in file "C:\Program Files (x86)\Microchip\xc8\v2.10\pic\sources\c99\common\llmod.c"
  4857 ;; Parameters:    Size  Location     Type
  4858 ;;  dividend        4   13[COMRAM] unsigned long 
  4859 ;;  divisor         4   17[COMRAM] unsigned long 
  4860 ;; Auto vars:     Size  Location     Type
  4861 ;;  counter         1   21[COMRAM] unsigned char 
  4862 ;; Return value:  Size  Location     Type
  4863 ;;                  4   13[COMRAM] unsigned long 
  4864 ;; Registers used:
  4865 ;;		wreg, status,2, status,0
  4866 ;; Tracked objects:
  4867 ;;		On entry : 0/0
  4868 ;;		On exit  : 0/0
  4869 ;;		Unchanged: 0/0
  4870 ;; Data sizes:     COMRAM   BANK0   BANK1   BANK2   BANK3   BANK4   BANK5   BANK6   BANK7   BANK8   BANK9  BANK10  BANK1
      +1  BANK12  BANK13  BANK14
  4871 ;;      Params:         8       0       0       0       0       0       0       0       0       0       0       0       
      +0       0       0       0
  4872 ;;      Locals:         1       0       0       0       0       0       0       0       0       0       0       0       
      +0       0       0       0
  4873 ;;      Temps:          0       0       0       0       0       0       0       0       0       0       0       0       
      +0       0       0       0
  4874 ;;      Totals:         9       0       0       0       0       0       0       0       0       0       0       0       
      +0       0       0       0
  4875 ;;Total ram usage:        9 bytes
  4876 ;; Hardware stack levels used:    1
  4877 ;; This function calls:
  4878 ;;		Nothing
  4879 ;; This function is called by:
  4880 ;;		_main
  4881 ;; This function uses a non-reentrant model
  4882 ;;
  4883                           
  4884                           	psect	text13
  4885  01DC48                     __ptext13:
  4886                           	opt callstack 0
  4887  01DC48                     ___llmod:
  4888                           	opt callstack 30
  4889  01DC48  5012               	movf	___llmod@divisor^0,w,c
  4890  01DC4A  1013               	iorwf	(___llmod@divisor+1)^0,w,c
  4891  01DC4C  1014               	iorwf	(___llmod@divisor+2)^0,w,c
  4892  01DC4E  1015               	iorwf	(___llmod@divisor+3)^0,w,c
  4893  01DC50  B4D8               	btfsc	status,2,c
  4894  01DC52  EF2D  F0EE         	goto	u3021
  4895  01DC56  EF2F  F0EE         	goto	u3020
  4896  01DC5A                     u3021:
  4897  01DC5A  EF5F  F0EE         	goto	l656
  4898  01DC5E                     u3020:
  4899  01DC5E  0E01               	movlw	1
  4900  01DC60  6E16               	movwf	___llmod@counter^0,c
  4901  01DC62  EF39  F0EE         	goto	l3132
  4902  01DC66                     l3130:
  4903  01DC66  90D8               	bcf	status,0,c
  4904  01DC68  3612               	rlcf	___llmod@divisor^0,f,c
  4905  01DC6A  3613               	rlcf	(___llmod@divisor+1)^0,f,c
  4906  01DC6C  3614               	rlcf	(___llmod@divisor+2)^0,f,c
  4907  01DC6E  3615               	rlcf	(___llmod@divisor+3)^0,f,c
  4908  01DC70  2A16               	incf	___llmod@counter^0,f,c
  4909  01DC72                     l3132:
  4910  01DC72  AE15               	btfss	(___llmod@divisor+3)^0,7,c
  4911  01DC74  EF3E  F0EE         	goto	u3031
  4912  01DC78  EF40  F0EE         	goto	u3030
  4913  01DC7C                     u3031:
  4914  01DC7C  EF33  F0EE         	goto	l3130
  4915  01DC80                     u3030:
  4916  01DC80                     l3134:
  4917  01DC80  5012               	movf	___llmod@divisor^0,w,c
  4918  01DC82  5C0E               	subwf	___llmod@dividend^0,w,c
  4919  01DC84  5013               	movf	(___llmod@divisor+1)^0,w,c
  4920  01DC86  580F               	subwfb	(___llmod@dividend+1)^0,w,c
  4921  01DC88  5014               	movf	(___llmod@divisor+2)^0,w,c
  4922  01DC8A  5810               	subwfb	(___llmod@dividend+2)^0,w,c
  4923  01DC8C  5015               	movf	(___llmod@divisor+3)^0,w,c
  4924  01DC8E  5811               	subwfb	(___llmod@dividend+3)^0,w,c
  4925  01DC90  A0D8               	btfss	status,0,c
  4926  01DC92  EF4D  F0EE         	goto	u3041
  4927  01DC96  EF4F  F0EE         	goto	u3040
  4928  01DC9A                     u3041:
  4929  01DC9A  EF57  F0EE         	goto	l3138
  4930  01DC9E                     u3040:
  4931  01DC9E  5012               	movf	___llmod@divisor^0,w,c
  4932  01DCA0  5E0E               	subwf	___llmod@dividend^0,f,c
  4933  01DCA2  5013               	movf	(___llmod@divisor+1)^0,w,c
  4934  01DCA4  5A0F               	subwfb	(___llmod@dividend+1)^0,f,c
  4935  01DCA6  5014               	movf	(___llmod@divisor+2)^0,w,c
  4936  01DCA8  5A10               	subwfb	(___llmod@dividend+2)^0,f,c
  4937  01DCAA  5015               	movf	(___llmod@divisor+3)^0,w,c
  4938  01DCAC  5A11               	subwfb	(___llmod@dividend+3)^0,f,c
  4939  01DCAE                     l3138:
  4940  01DCAE  90D8               	bcf	status,0,c
  4941  01DCB0  3215               	rrcf	(___llmod@divisor+3)^0,f,c
  4942  01DCB2  3214               	rrcf	(___llmod@divisor+2)^0,f,c
  4943  01DCB4  3213               	rrcf	(___llmod@divisor+1)^0,f,c
  4944  01DCB6  3212               	rrcf	___llmod@divisor^0,f,c
  4945  01DCB8  2E16               	decfsz	___llmod@counter^0,f,c
  4946  01DCBA  EF40  F0EE         	goto	l3134
  4947  01DCBE                     l656:
  4948  01DCBE  C00E  F00E         	movff	___llmod@dividend,?___llmod
  4949  01DCC2  C00F  F00F         	movff	___llmod@dividend+1,?___llmod+1
  4950  01DCC6  C010  F010         	movff	___llmod@dividend+2,?___llmod+2
  4951  01DCCA  C011  F011         	movff	___llmod@dividend+3,?___llmod+3
  4952  01DCCE  0012               	return		;funcret
  4953  01DCD0                     __end_of___llmod:
  4954                           	opt callstack 0
  4955                           
  4956 ;; *************** function ___lldiv *****************
  4957 ;; Defined at:
  4958 ;;		line 7 in file "C:\Program Files (x86)\Microchip\xc8\v2.10\pic\sources\c99\common\__lldiv.c"
  4959 ;; Parameters:    Size  Location     Type
  4960 ;;  dividend        4    0[COMRAM] unsigned long 
  4961 ;;  divisor         4    4[COMRAM] unsigned long 
  4962 ;; Auto vars:     Size  Location     Type
  4963 ;;  quotient        4    8[COMRAM] unsigned long 
  4964 ;;  counter         1   12[COMRAM] unsigned char 
  4965 ;; Return value:  Size  Location     Type
  4966 ;;                  4    0[COMRAM] unsigned long 
  4967 ;; Registers used:
  4968 ;;		wreg, status,2, status,0
  4969 ;; Tracked objects:
  4970 ;;		On entry : 0/0
  4971 ;;		On exit  : 0/0
  4972 ;;		Unchanged: 0/0
  4973 ;; Data sizes:     COMRAM   BANK0   BANK1   BANK2   BANK3   BANK4   BANK5   BANK6   BANK7   BANK8   BANK9  BANK10  BANK1
      +1  BANK12  BANK13  BANK14
  4974 ;;      Params:         8       0       0       0       0       0       0       0       0       0       0       0       
      +0       0       0       0
  4975 ;;      Locals:         5       0       0       0       0       0       0       0       0       0       0       0       
      +0       0       0       0
  4976 ;;      Temps:          0       0       0       0       0       0       0       0       0       0       0       0       
      +0       0       0       0
  4977 ;;      Totals:        13       0       0       0       0       0       0       0       0       0       0       0       
      +0       0       0       0
  4978 ;;Total ram usage:       13 bytes
  4979 ;; Hardware stack levels used:    1
  4980 ;; This function calls:
  4981 ;;		Nothing
  4982 ;; This function is called by:
  4983 ;;		_main
  4984 ;; This function uses a non-reentrant model
  4985 ;;
  4986                           
  4987                           	psect	text14
  4988  01DCD0                     __ptext14:
  4989                           	opt callstack 0
  4990  01DCD0                     ___lldiv:
  4991                           	opt callstack 30
  4992  01DCD0  0E00               	movlw	0
  4993  01DCD2  6E09               	movwf	___lldiv@quotient^0,c
  4994  01DCD4  0E00               	movlw	0
  4995  01DCD6  6E0A               	movwf	(___lldiv@quotient+1)^0,c
  4996  01DCD8  0E00               	movlw	0
  4997  01DCDA  6E0B               	movwf	(___lldiv@quotient+2)^0,c
  4998  01DCDC  0E00               	movlw	0
  4999  01DCDE  6E0C               	movwf	(___lldiv@quotient+3)^0,c
  5000  01DCE0  5005               	movf	___lldiv@divisor^0,w,c
  5001  01DCE2  1006               	iorwf	(___lldiv@divisor+1)^0,w,c
  5002  01DCE4  1007               	iorwf	(___lldiv@divisor+2)^0,w,c
  5003  01DCE6  1008               	iorwf	(___lldiv@divisor+3)^0,w,c
  5004  01DCE8  B4D8               	btfsc	status,2,c
  5005  01DCEA  EF79  F0EE         	goto	u2821
  5006  01DCEE  EF7B  F0EE         	goto	u2820
  5007  01DCF2                     u2821:
  5008  01DCF2  EFB1  F0EE         	goto	l263
  5009  01DCF6                     u2820:
  5010  01DCF6  0E01               	movlw	1
  5011  01DCF8  6E0D               	movwf	___lldiv@counter^0,c
  5012  01DCFA  EF85  F0EE         	goto	l3004
  5013  01DCFE                     l3002:
  5014  01DCFE  90D8               	bcf	status,0,c
  5015  01DD00  3605               	rlcf	___lldiv@divisor^0,f,c
  5016  01DD02  3606               	rlcf	(___lldiv@divisor+1)^0,f,c
  5017  01DD04  3607               	rlcf	(___lldiv@divisor+2)^0,f,c
  5018  01DD06  3608               	rlcf	(___lldiv@divisor+3)^0,f,c
  5019  01DD08  2A0D               	incf	___lldiv@counter^0,f,c
  5020  01DD0A                     l3004:
  5021  01DD0A  AE08               	btfss	(___lldiv@divisor+3)^0,7,c
  5022  01DD0C  EF8A  F0EE         	goto	u2831
  5023  01DD10  EF8C  F0EE         	goto	u2830
  5024  01DD14                     u2831:
  5025  01DD14  EF7F  F0EE         	goto	l3002
  5026  01DD18                     u2830:
  5027  01DD18                     l3006:
  5028  01DD18  90D8               	bcf	status,0,c
  5029  01DD1A  3609               	rlcf	___lldiv@quotient^0,f,c
  5030  01DD1C  360A               	rlcf	(___lldiv@quotient+1)^0,f,c
  5031  01DD1E  360B               	rlcf	(___lldiv@quotient+2)^0,f,c
  5032  01DD20  360C               	rlcf	(___lldiv@quotient+3)^0,f,c
  5033  01DD22  5005               	movf	___lldiv@divisor^0,w,c
  5034  01DD24  5C01               	subwf	___lldiv@dividend^0,w,c
  5035  01DD26  5006               	movf	(___lldiv@divisor+1)^0,w,c
  5036  01DD28  5802               	subwfb	(___lldiv@dividend+1)^0,w,c
  5037  01DD2A  5007               	movf	(___lldiv@divisor+2)^0,w,c
  5038  01DD2C  5803               	subwfb	(___lldiv@dividend+2)^0,w,c
  5039  01DD2E  5008               	movf	(___lldiv@divisor+3)^0,w,c
  5040  01DD30  5804               	subwfb	(___lldiv@dividend+3)^0,w,c
  5041  01DD32  A0D8               	btfss	status,0,c
  5042  01DD34  EF9E  F0EE         	goto	u2841
  5043  01DD38  EFA0  F0EE         	goto	u2840
  5044  01DD3C                     u2841:
  5045  01DD3C  EFA9  F0EE         	goto	l3014
  5046  01DD40                     u2840:
  5047  01DD40  5005               	movf	___lldiv@divisor^0,w,c
  5048  01DD42  5E01               	subwf	___lldiv@dividend^0,f,c
  5049  01DD44  5006               	movf	(___lldiv@divisor+1)^0,w,c
  5050  01DD46  5A02               	subwfb	(___lldiv@dividend+1)^0,f,c
  5051  01DD48  5007               	movf	(___lldiv@divisor+2)^0,w,c
  5052  01DD4A  5A03               	subwfb	(___lldiv@dividend+2)^0,f,c
  5053  01DD4C  5008               	movf	(___lldiv@divisor+3)^0,w,c
  5054  01DD4E  5A04               	subwfb	(___lldiv@dividend+3)^0,f,c
  5055  01DD50  8009               	bsf	___lldiv@quotient^0,0,c
  5056  01DD52                     l3014:
  5057  01DD52  90D8               	bcf	status,0,c
  5058  01DD54  3208               	rrcf	(___lldiv@divisor+3)^0,f,c
  5059  01DD56  3207               	rrcf	(___lldiv@divisor+2)^0,f,c
  5060  01DD58  3206               	rrcf	(___lldiv@divisor+1)^0,f,c
  5061  01DD5A  3205               	rrcf	___lldiv@divisor^0,f,c
  5062  01DD5C  2E0D               	decfsz	___lldiv@counter^0,f,c
  5063  01DD5E  EF8C  F0EE         	goto	l3006
  5064  01DD62                     l263:
  5065  01DD62  C009  F001         	movff	___lldiv@quotient,?___lldiv
  5066  01DD66  C00A  F002         	movff	___lldiv@quotient+1,?___lldiv+1
  5067  01DD6A  C00B  F003         	movff	___lldiv@quotient+2,?___lldiv+2
  5068  01DD6E  C00C  F004         	movff	___lldiv@quotient+3,?___lldiv+3
  5069  01DD72  0012               	return		;funcret
  5070  01DD74                     __end_of___lldiv:
  5071                           	opt callstack 0
  5072                           
  5073 ;; *************** function ___flsub *****************
  5074 ;; Defined at:
  5075 ;;		line 245 in file "C:\Program Files (x86)\Microchip\xc8\v2.10\pic\sources\c99\common\sprcadd.c"
  5076 ;; Parameters:    Size  Location     Type
  5077 ;;  b               4    4[BANK0 ] unsigned long 
  5078 ;;  a               4    8[BANK0 ] unsigned long 
  5079 ;; Auto vars:     Size  Location     Type
  5080 ;;		None
  5081 ;; Return value:  Size  Location     Type
  5082 ;;                  4    4[BANK0 ] unsigned long 
  5083 ;; Registers used:
  5084 ;;		wreg, status,2, status,0, cstack
  5085 ;; Tracked objects:
  5086 ;;		On entry : 0/0
  5087 ;;		On exit  : 0/0
  5088 ;;		Unchanged: 0/0
  5089 ;; Data sizes:     COMRAM   BANK0   BANK1   BANK2   BANK3   BANK4   BANK5   BANK6   BANK7   BANK8   BANK9  BANK10  BANK1
      +1  BANK12  BANK13  BANK14
  5090 ;;      Params:         0       8       0       0       0       0       0       0       0       0       0       0       
      +0       0       0       0
  5091 ;;      Locals:         0       0       0       0       0       0       0       0       0       0       0       0       
      +0       0       0       0
  5092 ;;      Temps:          0       0       0       0       0       0       0       0       0       0       0       0       
      +0       0       0       0
  5093 ;;      Totals:         0       8       0       0       0       0       0       0       0       0       0       0       
      +0       0       0       0
  5094 ;;Total ram usage:        8 bytes
  5095 ;; Hardware stack levels used:    1
  5096 ;; Hardware stack levels required when called:    1
  5097 ;; This function calls:
  5098 ;;		___fladd
  5099 ;; This function is called by:
  5100 ;;		_main
  5101 ;; This function uses a non-reentrant model
  5102 ;;
  5103                           
  5104                           	psect	text15
  5105  01DC00                     __ptext15:
  5106                           	opt callstack 0
  5107  01DC00                     ___flsub:
  5108                           	opt callstack 29
  5109  01DC00  0E00               	movlw	0
  5110  01DC02  0100               	movlb	0	; () banked
  5111  01DC04  1B68               	xorwf	___flsub@a& (0+255),f,b
  5112  01DC06  0E00               	movlw	0
  5113  01DC08  1B69               	xorwf	(___flsub@a+1)& (0+255),f,b
  5114  01DC0A  0E00               	movlw	0
  5115  01DC0C  1B6A               	xorwf	(___flsub@a+2)& (0+255),f,b
  5116  01DC0E  0E80               	movlw	128
  5117  01DC10  1B6B               	xorwf	(___flsub@a+3)& (0+255),f,b
  5118  01DC12                     
  5119                           ; BSR set to: 0
  5120  01DC12  C064  F053         	movff	___flsub@b,___fladd@b
  5121  01DC16  C065  F054         	movff	___flsub@b+1,___fladd@b+1
  5122  01DC1A  C066  F055         	movff	___flsub@b+2,___fladd@b+2
  5123  01DC1E  C067  F056         	movff	___flsub@b+3,___fladd@b+3
  5124  01DC22  C068  F057         	movff	___flsub@a,___fladd@a
  5125  01DC26  C069  F058         	movff	___flsub@a+1,___fladd@a+1
  5126  01DC2A  C06A  F059         	movff	___flsub@a+2,___fladd@a+2
  5127  01DC2E  C06B  F05A         	movff	___flsub@a+3,___fladd@a+3
  5128  01DC32  EC25  F0F7         	call	___fladd	;wreg free
  5129  01DC36  C053  F064         	movff	?___fladd,?___flsub
  5130  01DC3A  C054  F065         	movff	?___fladd+1,?___flsub+1
  5131  01DC3E  C055  F066         	movff	?___fladd+2,?___flsub+2
  5132  01DC42  C056  F067         	movff	?___fladd+3,?___flsub+3
  5133  01DC46  0012               	return		;funcret
  5134  01DC48                     __end_of___flsub:
  5135                           	opt callstack 0
  5136                           
  5137 ;; *************** function ___fladd *****************
  5138 ;; Defined at:
  5139 ;;		line 10 in file "C:\Program Files (x86)\Microchip\xc8\v2.10\pic\sources\c99\common\sprcadd.c"
  5140 ;; Parameters:    Size  Location     Type
  5141 ;;  b               4   82[COMRAM] unsigned long 
  5142 ;;  a               4   86[COMRAM] unsigned long 
  5143 ;; Auto vars:     Size  Location     Type
  5144 ;;  grs             1    3[BANK0 ] unsigned char 
  5145 ;;  bexp            1    2[BANK0 ] unsigned char 
  5146 ;;  aexp            1    1[BANK0 ] unsigned char 
  5147 ;;  signs           1    0[BANK0 ] unsigned char 
  5148 ;; Return value:  Size  Location     Type
  5149 ;;                  4   82[COMRAM] unsigned char 
  5150 ;; Registers used:
  5151 ;;		wreg, status,2, status,0
  5152 ;; Tracked objects:
  5153 ;;		On entry : 0/0
  5154 ;;		On exit  : 0/0
  5155 ;;		Unchanged: 0/0
  5156 ;; Data sizes:     COMRAM   BANK0   BANK1   BANK2   BANK3   BANK4   BANK5   BANK6   BANK7   BANK8   BANK9  BANK10  BANK1
      +1  BANK12  BANK13  BANK14
  5157 ;;      Params:         8       0       0       0       0       0       0       0       0       0       0       0       
      +0       0       0       0
  5158 ;;      Locals:         0       4       0       0       0       0       0       0       0       0       0       0       
      +0       0       0       0
  5159 ;;      Temps:          4       0       0       0       0       0       0       0       0       0       0       0       
      +0       0       0       0
  5160 ;;      Totals:        12       4       0       0       0       0       0       0       0       0       0       0       
      +0       0       0       0
  5161 ;;Total ram usage:       16 bytes
  5162 ;; Hardware stack levels used:    1
  5163 ;; This function calls:
  5164 ;;		Nothing
  5165 ;; This function is called by:
  5166 ;;		_ccpNum0
  5167 ;;		_main
  5168 ;;		___flsub
  5169 ;; This function uses a non-reentrant model
  5170 ;;
  5171                           
  5172                           	psect	text16
  5173  01EE4A                     __ptext16:
  5174                           	opt callstack 0
  5175  01EE4A                     ___fladd:
  5176                           	opt callstack 29
  5177  01EE4A  5056               	movf	(___fladd@b+3)^0,w,c
  5178  01EE4C  0B80               	andlw	128
  5179  01EE4E  0100               	movlb	0	; () banked
  5180  01EE50  6F60               	movwf	___fladd@signs& (0+255),b
  5181  01EE52  5056               	movf	(___fladd@b+3)^0,w,c
  5182  01EE54  2456               	addwf	(___fladd@b+3)^0,w,c
  5183  01EE56  6F62               	movwf	___fladd@bexp& (0+255),b
  5184  01EE58                     
  5185                           ; BSR set to: 0
  5186  01EE58  AE55               	btfss	(___fladd@b+2)^0,7,c
  5187  01EE5A  EF31  F0F7         	goto	u1721
  5188  01EE5E  EF33  F0F7         	goto	u1720
  5189  01EE62                     u1721:
  5190  01EE62  EF34  F0F7         	goto	l2210
  5191  01EE66                     u1720:
  5192  01EE66                     
  5193                           ; BSR set to: 0
  5194  01EE66  8162               	bsf	___fladd@bexp& (0+255),0,b
  5195  01EE68                     l2210:
  5196                           
  5197                           ; BSR set to: 0
  5198  01EE68  5162               	movf	___fladd@bexp& (0+255),w,b
  5199  01EE6A  B4D8               	btfsc	status,2,c
  5200  01EE6C  EF3A  F0F7         	goto	u1731
  5201  01EE70  EF3C  F0F7         	goto	u1730
  5202  01EE74                     u1731:
  5203  01EE74  EF51  F0F7         	goto	l2220
  5204  01EE78                     u1730:
  5205  01EE78                     
  5206                           ; BSR set to: 0
  5207  01EE78  2962               	incf	___fladd@bexp& (0+255),w,b
  5208  01EE7A  A4D8               	btfss	status,2,c
  5209  01EE7C  EF42  F0F7         	goto	u1741
  5210  01EE80  EF44  F0F7         	goto	u1740
  5211  01EE84                     u1741:
  5212  01EE84  EF4C  F0F7         	goto	l2216
  5213  01EE88                     u1740:
  5214  01EE88                     
  5215                           ; BSR set to: 0
  5216  01EE88  0E00               	movlw	0
  5217  01EE8A  6E53               	movwf	___fladd@b^0,c
  5218  01EE8C  0E00               	movlw	0
  5219  01EE8E  6E54               	movwf	(___fladd@b+1)^0,c
  5220  01EE90  0E00               	movlw	0
  5221  01EE92  6E55               	movwf	(___fladd@b+2)^0,c
  5222  01EE94  0E00               	movlw	0
  5223  01EE96  6E56               	movwf	(___fladd@b+3)^0,c
  5224  01EE98                     l2216:
  5225                           
  5226                           ; BSR set to: 0
  5227  01EE98  8E55               	bsf	(___fladd@b+2)^0,7,c
  5228  01EE9A                     
  5229                           ; BSR set to: 0
  5230  01EE9A  0E00               	movlw	0
  5231  01EE9C  6E56               	movwf	(___fladd@b+3)^0,c
  5232  01EE9E  EF59  F0F7         	goto	l2222
  5233  01EEA2                     l2220:
  5234                           
  5235                           ; BSR set to: 0
  5236  01EEA2  0E00               	movlw	0
  5237  01EEA4  6E53               	movwf	___fladd@b^0,c
  5238  01EEA6  0E00               	movlw	0
  5239  01EEA8  6E54               	movwf	(___fladd@b+1)^0,c
  5240  01EEAA  0E00               	movlw	0
  5241  01EEAC  6E55               	movwf	(___fladd@b+2)^0,c
  5242  01EEAE  0E00               	movlw	0
  5243  01EEB0  6E56               	movwf	(___fladd@b+3)^0,c
  5244  01EEB2                     l2222:
  5245                           
  5246                           ; BSR set to: 0
  5247  01EEB2  505A               	movf	(___fladd@a+3)^0,w,c
  5248  01EEB4  0B80               	andlw	128
  5249  01EEB6  6F61               	movwf	___fladd@aexp& (0+255),b
  5250  01EEB8                     
  5251                           ; BSR set to: 0
  5252  01EEB8  5160               	movf	___fladd@signs& (0+255),w,b
  5253  01EEBA  1961               	xorwf	___fladd@aexp& (0+255),w,b
  5254  01EEBC  B4D8               	btfsc	status,2,c
  5255  01EEBE  EF63  F0F7         	goto	u1751
  5256  01EEC2  EF65  F0F7         	goto	u1750
  5257  01EEC6                     u1751:
  5258  01EEC6  EF66  F0F7         	goto	l2228
  5259  01EECA                     u1750:
  5260  01EECA                     
  5261                           ; BSR set to: 0
  5262  01EECA  8D60               	bsf	___fladd@signs& (0+255),6,b
  5263  01EECC                     l2228:
  5264                           
  5265                           ; BSR set to: 0
  5266  01EECC  505A               	movf	(___fladd@a+3)^0,w,c
  5267  01EECE  245A               	addwf	(___fladd@a+3)^0,w,c
  5268  01EED0  6F61               	movwf	___fladd@aexp& (0+255),b
  5269  01EED2                     
  5270                           ; BSR set to: 0
  5271  01EED2  AE59               	btfss	(___fladd@a+2)^0,7,c
  5272  01EED4  EF6E  F0F7         	goto	u1761
  5273  01EED8  EF70  F0F7         	goto	u1760
  5274  01EEDC                     u1761:
  5275  01EEDC  EF71  F0F7         	goto	l2234
  5276  01EEE0                     u1760:
  5277  01EEE0                     
  5278                           ; BSR set to: 0
  5279  01EEE0  8161               	bsf	___fladd@aexp& (0+255),0,b
  5280  01EEE2                     l2234:
  5281                           
  5282                           ; BSR set to: 0
  5283  01EEE2  5161               	movf	___fladd@aexp& (0+255),w,b
  5284  01EEE4  B4D8               	btfsc	status,2,c
  5285  01EEE6  EF77  F0F7         	goto	u1771
  5286  01EEEA  EF79  F0F7         	goto	u1770
  5287  01EEEE                     u1771:
  5288  01EEEE  EF8E  F0F7         	goto	l2244
  5289  01EEF2                     u1770:
  5290  01EEF2                     
  5291                           ; BSR set to: 0
  5292  01EEF2  2961               	incf	___fladd@aexp& (0+255),w,b
  5293  01EEF4  A4D8               	btfss	status,2,c
  5294  01EEF6  EF7F  F0F7         	goto	u1781
  5295  01EEFA  EF81  F0F7         	goto	u1780
  5296  01EEFE                     u1781:
  5297  01EEFE  EF89  F0F7         	goto	l2240
  5298  01EF02                     u1780:
  5299  01EF02                     
  5300                           ; BSR set to: 0
  5301  01EF02  0E00               	movlw	0
  5302  01EF04  6E57               	movwf	___fladd@a^0,c
  5303  01EF06  0E00               	movlw	0
  5304  01EF08  6E58               	movwf	(___fladd@a+1)^0,c
  5305  01EF0A  0E00               	movlw	0
  5306  01EF0C  6E59               	movwf	(___fladd@a+2)^0,c
  5307  01EF0E  0E00               	movlw	0
  5308  01EF10  6E5A               	movwf	(___fladd@a+3)^0,c
  5309  01EF12                     l2240:
  5310                           
  5311                           ; BSR set to: 0
  5312  01EF12  8E59               	bsf	(___fladd@a+2)^0,7,c
  5313  01EF14                     
  5314                           ; BSR set to: 0
  5315  01EF14  0E00               	movlw	0
  5316  01EF16  6E5A               	movwf	(___fladd@a+3)^0,c
  5317  01EF18  EF96  F0F7         	goto	l2246
  5318  01EF1C                     l2244:
  5319                           
  5320                           ; BSR set to: 0
  5321  01EF1C  0E00               	movlw	0
  5322  01EF1E  6E57               	movwf	___fladd@a^0,c
  5323  01EF20  0E00               	movlw	0
  5324  01EF22  6E58               	movwf	(___fladd@a+1)^0,c
  5325  01EF24  0E00               	movlw	0
  5326  01EF26  6E59               	movwf	(___fladd@a+2)^0,c
  5327  01EF28  0E00               	movlw	0
  5328  01EF2A  6E5A               	movwf	(___fladd@a+3)^0,c
  5329  01EF2C                     l2246:
  5330                           
  5331                           ; BSR set to: 0
  5332  01EF2C  5162               	movf	___fladd@bexp& (0+255),w,b
  5333  01EF2E  5D61               	subwf	___fladd@aexp& (0+255),w,b
  5334  01EF30  B0D8               	btfsc	status,0,c
  5335  01EF32  EF9D  F0F7         	goto	u1791
  5336  01EF36  EF9F  F0F7         	goto	u1790
  5337  01EF3A                     u1791:
  5338  01EF3A  EFC6  F0F7         	goto	l2282
  5339  01EF3E                     u1790:
  5340  01EF3E                     
  5341                           ; BSR set to: 0
  5342  01EF3E  AD60               	btfss	___fladd@signs& (0+255),6,b
  5343  01EF40  EFA4  F0F7         	goto	u1801
  5344  01EF44  EFA6  F0F7         	goto	u1800
  5345  01EF48                     u1801:
  5346  01EF48  EFA8  F0F7         	goto	l2252
  5347  01EF4C                     u1800:
  5348  01EF4C                     
  5349                           ; BSR set to: 0
  5350  01EF4C  0E80               	movlw	128
  5351  01EF4E  1B60               	xorwf	___fladd@signs& (0+255),f,b
  5352  01EF50                     l2252:
  5353                           
  5354                           ; BSR set to: 0
  5355  01EF50  C062  F063         	movff	___fladd@bexp,___fladd@grs
  5356  01EF54                     
  5357                           ; BSR set to: 0
  5358  01EF54  C061  F062         	movff	___fladd@aexp,___fladd@bexp
  5359  01EF58                     
  5360                           ; BSR set to: 0
  5361  01EF58  C063  F061         	movff	___fladd@grs,___fladd@aexp
  5362  01EF5C                     
  5363                           ; BSR set to: 0
  5364  01EF5C  C053  F063         	movff	___fladd@b,___fladd@grs
  5365  01EF60                     
  5366                           ; BSR set to: 0
  5367  01EF60  C057  F053         	movff	___fladd@a,___fladd@b
  5368  01EF64                     
  5369                           ; BSR set to: 0
  5370  01EF64  C063  F057         	movff	___fladd@grs,___fladd@a
  5371  01EF68                     
  5372                           ; BSR set to: 0
  5373  01EF68  C054  F063         	movff	___fladd@b+1,___fladd@grs
  5374  01EF6C                     
  5375                           ; BSR set to: 0
  5376  01EF6C  C058  F054         	movff	___fladd@a+1,___fladd@b+1
  5377  01EF70                     
  5378                           ; BSR set to: 0
  5379  01EF70  C063  F058         	movff	___fladd@grs,___fladd@a+1
  5380  01EF74                     
  5381                           ; BSR set to: 0
  5382  01EF74  C055  F063         	movff	___fladd@b+2,___fladd@grs
  5383  01EF78                     
  5384                           ; BSR set to: 0
  5385  01EF78  C059  F055         	movff	___fladd@a+2,___fladd@b+2
  5386  01EF7C                     
  5387                           ; BSR set to: 0
  5388  01EF7C  C063  F059         	movff	___fladd@grs,___fladd@a+2
  5389  01EF80                     
  5390                           ; BSR set to: 0
  5391  01EF80  C056  F063         	movff	___fladd@b+3,___fladd@grs
  5392  01EF84                     
  5393                           ; BSR set to: 0
  5394  01EF84  C05A  F056         	movff	___fladd@a+3,___fladd@b+3
  5395  01EF88                     
  5396                           ; BSR set to: 0
  5397  01EF88  C063  F05A         	movff	___fladd@grs,___fladd@a+3
  5398  01EF8C                     l2282:
  5399                           
  5400                           ; BSR set to: 0
  5401  01EF8C  0E00               	movlw	0
  5402  01EF8E  6F63               	movwf	___fladd@grs& (0+255),b
  5403  01EF90                     
  5404                           ; BSR set to: 0
  5405  01EF90  5162               	movf	___fladd@bexp& (0+255),w,b
  5406  01EF92  C061  F05B         	movff	___fladd@aexp,??___fladd
  5407  01EF96  6A5C               	clrf	(??___fladd+1)^0,c
  5408  01EF98  5E5B               	subwf	??___fladd^0,f,c
  5409  01EF9A  0E00               	movlw	0
  5410  01EF9C  5A5C               	subwfb	(??___fladd+1)^0,f,c
  5411  01EF9E  BE5C               	btfsc	(??___fladd+1)^0,7,c
  5412  01EFA0  EFDB  F0F7         	goto	u1811
  5413  01EFA4  505C               	movf	(??___fladd+1)^0,w,c
  5414  01EFA6  E109               	bnz	u1810
  5415  01EFA8  0E1A               	movlw	26
  5416  01EFAA  5C5B               	subwf	??___fladd^0,w,c
  5417  01EFAC  A0D8               	btfss	status,0,c
  5418  01EFAE  EFDB  F0F7         	goto	u1811
  5419  01EFB2  EFDD  F0F7         	goto	u1810
  5420  01EFB6                     u1811:
  5421  01EFB6  EF14  F0F8         	goto	l765
  5422  01EFBA                     u1810:
  5423  01EFBA                     
  5424                           ; BSR set to: 0
  5425  01EFBA  5053               	movf	___fladd@b^0,w,c
  5426  01EFBC  1054               	iorwf	(___fladd@b+1)^0,w,c
  5427  01EFBE  1055               	iorwf	(___fladd@b+2)^0,w,c
  5428  01EFC0  1056               	iorwf	(___fladd@b+3)^0,w,c
  5429  01EFC2  A4D8               	btfss	status,2,c
  5430  01EFC4  EFE6  F0F7         	goto	u1821
  5431  01EFC8  EFE9  F0F7         	goto	u1820
  5432  01EFCC                     u1821:
  5433  01EFCC  0E01               	movlw	1
  5434  01EFCE  EFEA  F0F7         	goto	u1830
  5435  01EFD2                     u1820:
  5436  01EFD2  0E00               	movlw	0
  5437  01EFD4                     u1830:
  5438  01EFD4  6F63               	movwf	___fladd@grs& (0+255),b
  5439  01EFD6                     
  5440                           ; BSR set to: 0
  5441  01EFD6  0E00               	movlw	0
  5442  01EFD8  6E53               	movwf	___fladd@b^0,c
  5443  01EFDA  0E00               	movlw	0
  5444  01EFDC  6E54               	movwf	(___fladd@b+1)^0,c
  5445  01EFDE  0E00               	movlw	0
  5446  01EFE0  6E55               	movwf	(___fladd@b+2)^0,c
  5447  01EFE2  0E00               	movlw	0
  5448  01EFE4  6E56               	movwf	(___fladd@b+3)^0,c
  5449  01EFE6                     
  5450                           ; BSR set to: 0
  5451  01EFE6  C061  F062         	movff	___fladd@aexp,___fladd@bexp
  5452  01EFEA  EF1D  F0F8         	goto	l764
  5453  01EFEE                     l766:
  5454                           
  5455                           ; BSR set to: 0
  5456  01EFEE  A163               	btfss	___fladd@grs& (0+255),0,b
  5457  01EFF0  EFFC  F0F7         	goto	u1841
  5458  01EFF4  EFFE  F0F7         	goto	u1840
  5459  01EFF8                     u1841:
  5460  01EFF8  EF04  F0F8         	goto	l2294
  5461  01EFFC                     u1840:
  5462  01EFFC                     
  5463                           ; BSR set to: 0
  5464  01EFFC  90D8               	bcf	status,0,c
  5465  01EFFE  3163               	rrcf	___fladd@grs& (0+255),w,b
  5466  01F000  0901               	iorlw	1
  5467  01F002  6F63               	movwf	___fladd@grs& (0+255),b
  5468  01F004  EF06  F0F8         	goto	l2296
  5469  01F008                     l2294:
  5470                           
  5471                           ; BSR set to: 0
  5472  01F008  90D8               	bcf	status,0,c
  5473  01F00A  3363               	rrcf	___fladd@grs& (0+255),f,b
  5474  01F00C                     l2296:
  5475                           
  5476                           ; BSR set to: 0
  5477  01F00C  A053               	btfss	___fladd@b^0,0,c
  5478  01F00E  EF0B  F0F8         	goto	u1851
  5479  01F012  EF0D  F0F8         	goto	u1850
  5480  01F016                     u1851:
  5481  01F016  EF0E  F0F8         	goto	l2300
  5482  01F01A                     u1850:
  5483  01F01A                     
  5484                           ; BSR set to: 0
  5485  01F01A  8F63               	bsf	___fladd@grs& (0+255),7,b
  5486  01F01C                     l2300:
  5487                           
  5488                           ; BSR set to: 0
  5489  01F01C  3456               	rlcf	(___fladd@b+3)^0,w,c
  5490  01F01E  3256               	rrcf	(___fladd@b+3)^0,f,c
  5491  01F020  3255               	rrcf	(___fladd@b+2)^0,f,c
  5492  01F022  3254               	rrcf	(___fladd@b+1)^0,f,c
  5493  01F024  3253               	rrcf	___fladd@b^0,f,c
  5494  01F026                     
  5495                           ; BSR set to: 0
  5496  01F026  2B62               	incf	___fladd@bexp& (0+255),f,b
  5497  01F028                     l765:
  5498                           
  5499                           ; BSR set to: 0
  5500  01F028  5161               	movf	___fladd@aexp& (0+255),w,b
  5501  01F02A  5D62               	subwf	___fladd@bexp& (0+255),w,b
  5502  01F02C  A0D8               	btfss	status,0,c
  5503  01F02E  EF1B  F0F8         	goto	u1861
  5504  01F032  EF1D  F0F8         	goto	u1860
  5505  01F036                     u1861:
  5506  01F036  EFF7  F0F7         	goto	l766
  5507  01F03A                     u1860:
  5508  01F03A                     l764:
  5509                           
  5510                           ; BSR set to: 0
  5511  01F03A  BD60               	btfsc	___fladd@signs& (0+255),6,b
  5512  01F03C  EF22  F0F8         	goto	u1871
  5513  01F040  EF24  F0F8         	goto	u1870
  5514  01F044                     u1871:
  5515  01F044  EF64  F0F8         	goto	l2328
  5516  01F048                     u1870:
  5517  01F048                     
  5518                           ; BSR set to: 0
  5519  01F048  5162               	movf	___fladd@bexp& (0+255),w,b
  5520  01F04A  A4D8               	btfss	status,2,c
  5521  01F04C  EF2A  F0F8         	goto	u1881
  5522  01F050  EF2C  F0F8         	goto	u1880
  5523  01F054                     u1881:
  5524  01F054  EF36  F0F8         	goto	l2310
  5525  01F058                     u1880:
  5526  01F058                     
  5527                           ; BSR set to: 0
  5528  01F058  0E00               	movlw	0
  5529  01F05A  6E53               	movwf	?___fladd^0,c
  5530  01F05C  0E00               	movlw	0
  5531  01F05E  6E54               	movwf	(?___fladd+1)^0,c
  5532  01F060  0E00               	movlw	0
  5533  01F062  6E55               	movwf	(?___fladd+2)^0,c
  5534  01F064  0E00               	movlw	0
  5535  01F066  6E56               	movwf	(?___fladd+3)^0,c
  5536  01F068  EF85  F0F9         	goto	l773
  5537  01F06C                     l2310:
  5538                           
  5539                           ; BSR set to: 0
  5540  01F06C  5057               	movf	___fladd@a^0,w,c
  5541  01F06E  2653               	addwf	___fladd@b^0,f,c
  5542  01F070  5058               	movf	(___fladd@a+1)^0,w,c
  5543  01F072  2254               	addwfc	(___fladd@b+1)^0,f,c
  5544  01F074  5059               	movf	(___fladd@a+2)^0,w,c
  5545  01F076  2255               	addwfc	(___fladd@b+2)^0,f,c
  5546  01F078  505A               	movf	(___fladd@a+3)^0,w,c
  5547  01F07A  2256               	addwfc	(___fladd@b+3)^0,f,c
  5548  01F07C                     
  5549                           ; BSR set to: 0
  5550  01F07C  A056               	btfss	(___fladd@b+3)^0,0,c
  5551  01F07E  EF43  F0F8         	goto	u1891
  5552  01F082  EF45  F0F8         	goto	u1890
  5553  01F086                     u1891:
  5554  01F086  EFF1  F0F8         	goto	l2364
  5555  01F08A                     u1890:
  5556  01F08A                     
  5557                           ; BSR set to: 0
  5558  01F08A  A163               	btfss	___fladd@grs& (0+255),0,b
  5559  01F08C  EF4A  F0F8         	goto	u1901
  5560  01F090  EF4C  F0F8         	goto	u1900
  5561  01F094                     u1901:
  5562  01F094  EF52  F0F8         	goto	l2318
  5563  01F098                     u1900:
  5564  01F098                     
  5565                           ; BSR set to: 0
  5566  01F098  90D8               	bcf	status,0,c
  5567  01F09A  3163               	rrcf	___fladd@grs& (0+255),w,b
  5568  01F09C  0901               	iorlw	1
  5569  01F09E  6F63               	movwf	___fladd@grs& (0+255),b
  5570  01F0A0  EF54  F0F8         	goto	l2320
  5571  01F0A4                     l2318:
  5572                           
  5573                           ; BSR set to: 0
  5574  01F0A4  90D8               	bcf	status,0,c
  5575  01F0A6  3363               	rrcf	___fladd@grs& (0+255),f,b
  5576  01F0A8                     l2320:
  5577                           
  5578                           ; BSR set to: 0
  5579  01F0A8  A053               	btfss	___fladd@b^0,0,c
  5580  01F0AA  EF59  F0F8         	goto	u1911
  5581  01F0AE  EF5B  F0F8         	goto	u1910
  5582  01F0B2                     u1911:
  5583  01F0B2  EF5C  F0F8         	goto	l2324
  5584  01F0B6                     u1910:
  5585  01F0B6                     
  5586                           ; BSR set to: 0
  5587  01F0B6  8F63               	bsf	___fladd@grs& (0+255),7,b
  5588  01F0B8                     l2324:
  5589                           
  5590                           ; BSR set to: 0
  5591  01F0B8  3456               	rlcf	(___fladd@b+3)^0,w,c
  5592  01F0BA  3256               	rrcf	(___fladd@b+3)^0,f,c
  5593  01F0BC  3255               	rrcf	(___fladd@b+2)^0,f,c
  5594  01F0BE  3254               	rrcf	(___fladd@b+1)^0,f,c
  5595  01F0C0  3253               	rrcf	___fladd@b^0,f,c
  5596  01F0C2                     
  5597                           ; BSR set to: 0
  5598  01F0C2  2B62               	incf	___fladd@bexp& (0+255),f,b
  5599  01F0C4  EFF1  F0F8         	goto	l2364
  5600  01F0C8                     l2328:
  5601                           
  5602                           ; BSR set to: 0
  5603  01F0C8  5057               	movf	___fladd@a^0,w,c
  5604  01F0CA  5C53               	subwf	___fladd@b^0,w,c
  5605  01F0CC  5058               	movf	(___fladd@a+1)^0,w,c
  5606  01F0CE  5854               	subwfb	(___fladd@b+1)^0,w,c
  5607  01F0D0  5059               	movf	(___fladd@a+2)^0,w,c
  5608  01F0D2  5855               	subwfb	(___fladd@b+2)^0,w,c
  5609  01F0D4  5056               	movf	(___fladd@b+3)^0,w,c
  5610  01F0D6  0A80               	xorlw	128
  5611  01F0D8  6E5B               	movwf	??___fladd^0,c
  5612  01F0DA  505A               	movf	(___fladd@a+3)^0,w,c
  5613  01F0DC  0A80               	xorlw	128
  5614  01F0DE  585B               	subwfb	??___fladd^0,w,c
  5615  01F0E0  B0D8               	btfsc	status,0,c
  5616  01F0E2  EF75  F0F8         	goto	u1921
  5617  01F0E6  EF77  F0F8         	goto	u1920
  5618  01F0EA                     u1921:
  5619  01F0EA  EFA2  F0F8         	goto	l2338
  5620  01F0EE                     u1920:
  5621  01F0EE                     
  5622                           ; BSR set to: 0
  5623  01F0EE  5053               	movf	___fladd@b^0,w,c
  5624  01F0F0  5C57               	subwf	___fladd@a^0,w,c
  5625  01F0F2  6E5B               	movwf	??___fladd^0,c
  5626  01F0F4  5054               	movf	(___fladd@b+1)^0,w,c
  5627  01F0F6  5858               	subwfb	(___fladd@a+1)^0,w,c
  5628  01F0F8  6E5C               	movwf	(??___fladd+1)^0,c
  5629  01F0FA  5055               	movf	(___fladd@b+2)^0,w,c
  5630  01F0FC  5859               	subwfb	(___fladd@a+2)^0,w,c
  5631  01F0FE  6E5D               	movwf	(??___fladd+2)^0,c
  5632  01F100  5056               	movf	(___fladd@b+3)^0,w,c
  5633  01F102  585A               	subwfb	(___fladd@a+3)^0,w,c
  5634  01F104  6E5E               	movwf	(??___fladd+3)^0,c
  5635  01F106  0EFF               	movlw	255
  5636  01F108  245B               	addwf	??___fladd^0,w,c
  5637  01F10A  6E53               	movwf	___fladd@b^0,c
  5638  01F10C  0EFF               	movlw	255
  5639  01F10E  205C               	addwfc	(??___fladd+1)^0,w,c
  5640  01F110  6E54               	movwf	(___fladd@b+1)^0,c
  5641  01F112  0EFF               	movlw	255
  5642  01F114  205D               	addwfc	(??___fladd+2)^0,w,c
  5643  01F116  6E55               	movwf	(___fladd@b+2)^0,c
  5644  01F118  0EFF               	movlw	255
  5645  01F11A  205E               	addwfc	(??___fladd+3)^0,w,c
  5646  01F11C  6E56               	movwf	(___fladd@b+3)^0,c
  5647  01F11E  0E80               	movlw	128
  5648  01F120  1B60               	xorwf	___fladd@signs& (0+255),f,b
  5649  01F122                     
  5650                           ; BSR set to: 0
  5651  01F122  6D63               	negf	___fladd@grs& (0+255),b
  5652  01F124                     
  5653                           ; BSR set to: 0
  5654  01F124  5163               	movf	___fladd@grs& (0+255),w,b
  5655  01F126  A4D8               	btfss	status,2,c
  5656  01F128  EF98  F0F8         	goto	u1931
  5657  01F12C  EF9A  F0F8         	goto	u1930
  5658  01F130                     u1931:
  5659  01F130  EFAA  F0F8         	goto	l781
  5660  01F134                     u1930:
  5661  01F134                     
  5662                           ; BSR set to: 0
  5663  01F134  0E01               	movlw	1
  5664  01F136  2653               	addwf	___fladd@b^0,f,c
  5665  01F138  0E00               	movlw	0
  5666  01F13A  2254               	addwfc	(___fladd@b+1)^0,f,c
  5667  01F13C  2255               	addwfc	(___fladd@b+2)^0,f,c
  5668  01F13E  2256               	addwfc	(___fladd@b+3)^0,f,c
  5669  01F140  EFAA  F0F8         	goto	l781
  5670  01F144                     l2338:
  5671                           
  5672                           ; BSR set to: 0
  5673  01F144  5057               	movf	___fladd@a^0,w,c
  5674  01F146  5E53               	subwf	___fladd@b^0,f,c
  5675  01F148  5058               	movf	(___fladd@a+1)^0,w,c
  5676  01F14A  5A54               	subwfb	(___fladd@b+1)^0,f,c
  5677  01F14C  5059               	movf	(___fladd@a+2)^0,w,c
  5678  01F14E  5A55               	subwfb	(___fladd@b+2)^0,f,c
  5679  01F150  505A               	movf	(___fladd@a+3)^0,w,c
  5680  01F152  5A56               	subwfb	(___fladd@b+3)^0,f,c
  5681  01F154                     l781:
  5682                           
  5683                           ; BSR set to: 0
  5684  01F154  5053               	movf	___fladd@b^0,w,c
  5685  01F156  1054               	iorwf	(___fladd@b+1)^0,w,c
  5686  01F158  1055               	iorwf	(___fladd@b+2)^0,w,c
  5687  01F15A  1056               	iorwf	(___fladd@b+3)^0,w,c
  5688  01F15C  A4D8               	btfss	status,2,c
  5689  01F15E  EFB3  F0F8         	goto	u1941
  5690  01F162  EFB5  F0F8         	goto	u1940
  5691  01F166                     u1941:
  5692  01F166  EFEA  F0F8         	goto	l2362
  5693  01F16A                     u1940:
  5694  01F16A                     
  5695                           ; BSR set to: 0
  5696  01F16A  5163               	movf	___fladd@grs& (0+255),w,b
  5697  01F16C  A4D8               	btfss	status,2,c
  5698  01F16E  EFBB  F0F8         	goto	u1951
  5699  01F172  EFBD  F0F8         	goto	u1950
  5700  01F176                     u1951:
  5701  01F176  EFEA  F0F8         	goto	l2362
  5702  01F17A                     u1950:
  5703  01F17A                     
  5704                           ; BSR set to: 0
  5705  01F17A  0E00               	movlw	0
  5706  01F17C  6E53               	movwf	?___fladd^0,c
  5707  01F17E  0E00               	movlw	0
  5708  01F180  6E54               	movwf	(?___fladd+1)^0,c
  5709  01F182  0E00               	movlw	0
  5710  01F184  6E55               	movwf	(?___fladd+2)^0,c
  5711  01F186  0E00               	movlw	0
  5712  01F188  6E56               	movwf	(?___fladd+3)^0,c
  5713  01F18A  EF85  F0F9         	goto	l773
  5714  01F18E                     l2346:
  5715                           
  5716                           ; BSR set to: 0
  5717  01F18E  90D8               	bcf	status,0,c
  5718  01F190  3653               	rlcf	___fladd@b^0,f,c
  5719  01F192  3654               	rlcf	(___fladd@b+1)^0,f,c
  5720  01F194  3655               	rlcf	(___fladd@b+2)^0,f,c
  5721  01F196  3656               	rlcf	(___fladd@b+3)^0,f,c
  5722  01F198                     
  5723                           ; BSR set to: 0
  5724  01F198  AF63               	btfss	___fladd@grs& (0+255),7,b
  5725  01F19A  EFD1  F0F8         	goto	u1961
  5726  01F19E  EFD3  F0F8         	goto	u1960
  5727  01F1A2                     u1961:
  5728  01F1A2  EFD4  F0F8         	goto	l2352
  5729  01F1A6                     u1960:
  5730  01F1A6                     
  5731                           ; BSR set to: 0
  5732  01F1A6  8053               	bsf	___fladd@b^0,0,c
  5733  01F1A8                     l2352:
  5734                           
  5735                           ; BSR set to: 0
  5736  01F1A8  A163               	btfss	___fladd@grs& (0+255),0,b
  5737  01F1AA  EFD9  F0F8         	goto	u1971
  5738  01F1AE  EFDB  F0F8         	goto	u1970
  5739  01F1B2                     u1971:
  5740  01F1B2  EFDF  F0F8         	goto	l2356
  5741  01F1B6                     u1970:
  5742  01F1B6                     
  5743                           ; BSR set to: 0
  5744  01F1B6  80D8               	bsf	status,0,c
  5745  01F1B8  3763               	rlcf	___fladd@grs& (0+255),f,b
  5746  01F1BA  EFE1  F0F8         	goto	l2358
  5747  01F1BE                     l2356:
  5748                           
  5749                           ; BSR set to: 0
  5750  01F1BE  90D8               	bcf	status,0,c
  5751  01F1C0  3763               	rlcf	___fladd@grs& (0+255),f,b
  5752  01F1C2                     l2358:
  5753                           
  5754                           ; BSR set to: 0
  5755  01F1C2  5162               	movf	___fladd@bexp& (0+255),w,b
  5756  01F1C4  B4D8               	btfsc	status,2,c
  5757  01F1C6  EFE7  F0F8         	goto	u1981
  5758  01F1CA  EFE9  F0F8         	goto	u1980
  5759  01F1CE                     u1981:
  5760  01F1CE  EFEA  F0F8         	goto	l2362
  5761  01F1D2                     u1980:
  5762  01F1D2                     
  5763                           ; BSR set to: 0
  5764  01F1D2  0762               	decf	___fladd@bexp& (0+255),f,b
  5765  01F1D4                     l2362:
  5766                           
  5767                           ; BSR set to: 0
  5768  01F1D4  AE55               	btfss	(___fladd@b+2)^0,7,c
  5769  01F1D6  EFEF  F0F8         	goto	u1991
  5770  01F1DA  EFF1  F0F8         	goto	u1990
  5771  01F1DE                     u1991:
  5772  01F1DE  EFC7  F0F8         	goto	l2346
  5773  01F1E2                     u1990:
  5774  01F1E2                     l2364:
  5775                           
  5776                           ; BSR set to: 0
  5777  01F1E2  0E00               	movlw	0
  5778  01F1E4  6F61               	movwf	___fladd@aexp& (0+255),b
  5779  01F1E6                     
  5780                           ; BSR set to: 0
  5781  01F1E6  AF63               	btfss	___fladd@grs& (0+255),7,b
  5782  01F1E8  EFF8  F0F8         	goto	u2001
  5783  01F1EC  EFFA  F0F8         	goto	u2000
  5784  01F1F0                     u2001:
  5785  01F1F0  EF12  F0F9         	goto	l790
  5786  01F1F4                     u2000:
  5787  01F1F4                     
  5788                           ; BSR set to: 0
  5789  01F1F4  C063  F05B         	movff	___fladd@grs,??___fladd
  5790  01F1F8  0E7F               	movlw	127
  5791  01F1FA  165B               	andwf	??___fladd^0,f,c
  5792  01F1FC  B4D8               	btfsc	status,2,c
  5793  01F1FE  EF03  F0F9         	goto	u2011
  5794  01F202  EF05  F0F9         	goto	u2010
  5795  01F206                     u2011:
  5796  01F206  EF09  F0F9         	goto	l791
  5797  01F20A                     u2010:
  5798  01F20A                     l2370:
  5799                           
  5800                           ; BSR set to: 0
  5801  01F20A  0E01               	movlw	1
  5802  01F20C  6F61               	movwf	___fladd@aexp& (0+255),b
  5803  01F20E  EF12  F0F9         	goto	l790
  5804  01F212                     l791:
  5805                           
  5806                           ; BSR set to: 0
  5807  01F212  A053               	btfss	___fladd@b^0,0,c
  5808  01F214  EF0E  F0F9         	goto	u2021
  5809  01F218  EF10  F0F9         	goto	u2020
  5810  01F21C                     u2021:
  5811  01F21C  EF12  F0F9         	goto	l790
  5812  01F220                     u2020:
  5813  01F220  EF05  F0F9         	goto	l2370
  5814  01F224                     l790:
  5815                           
  5816                           ; BSR set to: 0
  5817  01F224  5161               	movf	___fladd@aexp& (0+255),w,b
  5818  01F226  B4D8               	btfsc	status,2,c
  5819  01F228  EF18  F0F9         	goto	u2031
  5820  01F22C  EF1A  F0F9         	goto	u2030
  5821  01F230                     u2031:
  5822  01F230  EF45  F0F9         	goto	l2382
  5823  01F234                     u2030:
  5824  01F234                     
  5825                           ; BSR set to: 0
  5826  01F234  0E01               	movlw	1
  5827  01F236  2653               	addwf	___fladd@b^0,f,c
  5828  01F238  0E00               	movlw	0
  5829  01F23A  2254               	addwfc	(___fladd@b+1)^0,f,c
  5830  01F23C  2255               	addwfc	(___fladd@b+2)^0,f,c
  5831  01F23E  2256               	addwfc	(___fladd@b+3)^0,f,c
  5832  01F240                     
  5833                           ; BSR set to: 0
  5834  01F240  A056               	btfss	(___fladd@b+3)^0,0,c
  5835  01F242  EF25  F0F9         	goto	u2041
  5836  01F246  EF27  F0F9         	goto	u2040
  5837  01F24A                     u2041:
  5838  01F24A  EF45  F0F9         	goto	l2382
  5839  01F24E                     u2040:
  5840  01F24E                     
  5841                           ; BSR set to: 0
  5842  01F24E  C053  F05B         	movff	___fladd@b,??___fladd
  5843  01F252  C054  F05C         	movff	___fladd@b+1,??___fladd+1
  5844  01F256  C055  F05D         	movff	___fladd@b+2,??___fladd+2
  5845  01F25A  C056  F05E         	movff	___fladd@b+3,??___fladd+3
  5846  01F25E  345E               	rlcf	(??___fladd+3)^0,w,c
  5847  01F260  325E               	rrcf	(??___fladd+3)^0,f,c
  5848  01F262  325D               	rrcf	(??___fladd+2)^0,f,c
  5849  01F264  325C               	rrcf	(??___fladd+1)^0,f,c
  5850  01F266  325B               	rrcf	??___fladd^0,f,c
  5851  01F268  C05B  F053         	movff	??___fladd,___fladd@b
  5852  01F26C  C05C  F054         	movff	??___fladd+1,___fladd@b+1
  5853  01F270  C05D  F055         	movff	??___fladd+2,___fladd@b+2
  5854  01F274  C05E  F056         	movff	??___fladd+3,___fladd@b+3
  5855  01F278  2962               	incf	___fladd@bexp& (0+255),w,b
  5856  01F27A  B4D8               	btfsc	status,2,c
  5857  01F27C  EF42  F0F9         	goto	u2051
  5858  01F280  EF44  F0F9         	goto	u2050
  5859  01F284                     u2051:
  5860  01F284  EF45  F0F9         	goto	l2382
  5861  01F288                     u2050:
  5862  01F288                     
  5863                           ; BSR set to: 0
  5864  01F288  2B62               	incf	___fladd@bexp& (0+255),f,b
  5865  01F28A                     l2382:
  5866                           
  5867                           ; BSR set to: 0
  5868  01F28A  2962               	incf	___fladd@bexp& (0+255),w,b
  5869  01F28C  B4D8               	btfsc	status,2,c
  5870  01F28E  EF4B  F0F9         	goto	u2061
  5871  01F292  EF4D  F0F9         	goto	u2060
  5872  01F296                     u2061:
  5873  01F296  EF55  F0F9         	goto	l2386
  5874  01F29A                     u2060:
  5875  01F29A                     
  5876                           ; BSR set to: 0
  5877  01F29A  5162               	movf	___fladd@bexp& (0+255),w,b
  5878  01F29C  A4D8               	btfss	status,2,c
  5879  01F29E  EF53  F0F9         	goto	u2071
  5880  01F2A2  EF55  F0F9         	goto	u2070
  5881  01F2A6                     u2071:
  5882  01F2A6  EF67  F0F9         	goto	l2390
  5883  01F2AA                     u2070:
  5884  01F2AA                     l2386:
  5885                           
  5886                           ; BSR set to: 0
  5887  01F2AA  0E00               	movlw	0
  5888  01F2AC  6E53               	movwf	___fladd@b^0,c
  5889  01F2AE  0E00               	movlw	0
  5890  01F2B0  6E54               	movwf	(___fladd@b+1)^0,c
  5891  01F2B2  0E00               	movlw	0
  5892  01F2B4  6E55               	movwf	(___fladd@b+2)^0,c
  5893  01F2B6  0E00               	movlw	0
  5894  01F2B8  6E56               	movwf	(___fladd@b+3)^0,c
  5895  01F2BA  5162               	movf	___fladd@bexp& (0+255),w,b
  5896  01F2BC  A4D8               	btfss	status,2,c
  5897  01F2BE  EF63  F0F9         	goto	u2081
  5898  01F2C2  EF65  F0F9         	goto	u2080
  5899  01F2C6                     u2081:
  5900  01F2C6  EF67  F0F9         	goto	l2390
  5901  01F2CA                     u2080:
  5902  01F2CA                     
  5903                           ; BSR set to: 0
  5904  01F2CA  0E00               	movlw	0
  5905  01F2CC  6F60               	movwf	___fladd@signs& (0+255),b
  5906  01F2CE                     l2390:
  5907                           
  5908                           ; BSR set to: 0
  5909  01F2CE  A162               	btfss	___fladd@bexp& (0+255),0,b
  5910  01F2D0  EF6C  F0F9         	goto	u2091
  5911  01F2D4  EF6E  F0F9         	goto	u2090
  5912  01F2D8                     u2091:
  5913  01F2D8  EF71  F0F9         	goto	l2394
  5914  01F2DC                     u2090:
  5915  01F2DC                     
  5916                           ; BSR set to: 0
  5917  01F2DC  8E55               	bsf	(___fladd@b+2)^0,7,c
  5918  01F2DE  EF72  F0F9         	goto	l2396
  5919  01F2E2                     l2394:
  5920                           
  5921                           ; BSR set to: 0
  5922  01F2E2  9E55               	bcf	(___fladd@b+2)^0,7,c
  5923  01F2E4                     l2396:
  5924                           
  5925                           ; BSR set to: 0
  5926  01F2E4  90D8               	bcf	status,0,c
  5927  01F2E6  3162               	rrcf	___fladd@bexp& (0+255),w,b
  5928  01F2E8  6E56               	movwf	(___fladd@b+3)^0,c
  5929  01F2EA                     
  5930                           ; BSR set to: 0
  5931  01F2EA  AF60               	btfss	___fladd@signs& (0+255),7,b
  5932  01F2EC  EF7A  F0F9         	goto	u2101
  5933  01F2F0  EF7C  F0F9         	goto	u2100
  5934  01F2F4                     u2101:
  5935  01F2F4  EF7D  F0F9         	goto	l2402
  5936  01F2F8                     u2100:
  5937  01F2F8                     
  5938                           ; BSR set to: 0
  5939  01F2F8  8E56               	bsf	(___fladd@b+3)^0,7,c
  5940  01F2FA                     l2402:
  5941                           
  5942                           ; BSR set to: 0
  5943  01F2FA  C053  F053         	movff	___fladd@b,?___fladd
  5944  01F2FE  C054  F054         	movff	___fladd@b+1,?___fladd+1
  5945  01F302  C055  F055         	movff	___fladd@b+2,?___fladd+2
  5946  01F306  C056  F056         	movff	___fladd@b+3,?___fladd+3
  5947  01F30A                     l773:
  5948                           
  5949                           ; BSR set to: 0
  5950  01F30A  0012               	return		;funcret
  5951  01F30C                     __end_of___fladd:
  5952                           	opt callstack 0
  5953                           
  5954 ;; *************** function ___flge *****************
  5955 ;; Defined at:
  5956 ;;		line 4 in file "C:\Program Files (x86)\Microchip\xc8\v2.10\pic\sources\c99\common\flge.c"
  5957 ;; Parameters:    Size  Location     Type
  5958 ;;  ff1             4   12[BANK0 ] unsigned char 
  5959 ;;  ff2             4   16[BANK0 ] unsigned char 
  5960 ;; Auto vars:     Size  Location     Type
  5961 ;;		None
  5962 ;; Return value:  Size  Location     Type
  5963 ;;		None               void
  5964 ;; Registers used:
  5965 ;;		wreg, status,2, status,0
  5966 ;; Tracked objects:
  5967 ;;		On entry : 0/0
  5968 ;;		On exit  : 0/0
  5969 ;;		Unchanged: 0/0
  5970 ;; Data sizes:     COMRAM   BANK0   BANK1   BANK2   BANK3   BANK4   BANK5   BANK6   BANK7   BANK8   BANK9  BANK10  BANK1
      +1  BANK12  BANK13  BANK14
  5971 ;;      Params:         0       8       0       0       0       0       0       0       0       0       0       0       
      +0       0       0       0
  5972 ;;      Locals:         0       0       0       0       0       0       0       0       0       0       0       0       
      +0       0       0       0
  5973 ;;      Temps:          0       4       0       0       0       0       0       0       0       0       0       0       
      +0       0       0       0
  5974 ;;      Totals:         0      12       0       0       0       0       0       0       0       0       0       0       
      +0       0       0       0
  5975 ;;Total ram usage:       12 bytes
  5976 ;; Hardware stack levels used:    1
  5977 ;; This function calls:
  5978 ;;		Nothing
  5979 ;; This function is called by:
  5980 ;;		_main
  5981 ;; This function uses a non-reentrant model
  5982 ;;
  5983                           
  5984                           	psect	text17
  5985  01E0B2                     __ptext17:
  5986                           	opt callstack 0
  5987  01E0B2                     ___flge:
  5988                           	opt callstack 30
  5989  01E0B2  0E00               	movlw	0
  5990  01E0B4  0100               	movlb	0	; () banked
  5991  01E0B6  156C               	andwf	___flge@ff1& (0+255),w,b
  5992  01E0B8  6F74               	movwf	??___flge& (0+255),b
  5993  01E0BA  0E00               	movlw	0
  5994  01E0BC  156D               	andwf	(___flge@ff1+1)& (0+255),w,b
  5995  01E0BE  6F75               	movwf	(??___flge+1)& (0+255),b
  5996  01E0C0  0E80               	movlw	128
  5997  01E0C2  156E               	andwf	(___flge@ff1+2)& (0+255),w,b
  5998  01E0C4  6F76               	movwf	(??___flge+2)& (0+255),b
  5999  01E0C6  0E7F               	movlw	127
  6000  01E0C8  156F               	andwf	(___flge@ff1+3)& (0+255),w,b
  6001  01E0CA  6F77               	movwf	(??___flge+3)& (0+255),b
  6002  01E0CC  5174               	movf	??___flge& (0+255),w,b
  6003  01E0CE  1175               	iorwf	(??___flge+1)& (0+255),w,b
  6004  01E0D0  1176               	iorwf	(??___flge+2)& (0+255),w,b
  6005  01E0D2  1177               	iorwf	(??___flge+3)& (0+255),w,b
  6006  01E0D4  A4D8               	btfss	status,2,c
  6007  01E0D6  EF6F  F0F0         	goto	u2971
  6008  01E0DA  EF71  F0F0         	goto	u2970
  6009  01E0DE                     u2971:
  6010  01E0DE  EF79  F0F0         	goto	l3108
  6011  01E0E2                     u2970:
  6012  01E0E2                     
  6013                           ; BSR set to: 0
  6014  01E0E2  0E00               	movlw	0
  6015  01E0E4  6F6C               	movwf	___flge@ff1& (0+255),b
  6016  01E0E6  0E00               	movlw	0
  6017  01E0E8  6F6D               	movwf	(___flge@ff1+1)& (0+255),b
  6018  01E0EA  0E00               	movlw	0
  6019  01E0EC  6F6E               	movwf	(___flge@ff1+2)& (0+255),b
  6020  01E0EE  0E00               	movlw	0
  6021  01E0F0  6F6F               	movwf	(___flge@ff1+3)& (0+255),b
  6022  01E0F2                     l3108:
  6023                           
  6024                           ; BSR set to: 0
  6025  01E0F2  0E00               	movlw	0
  6026  01E0F4  1570               	andwf	___flge@ff2& (0+255),w,b
  6027  01E0F6  6F74               	movwf	??___flge& (0+255),b
  6028  01E0F8  0E00               	movlw	0
  6029  01E0FA  1571               	andwf	(___flge@ff2+1)& (0+255),w,b
  6030  01E0FC  6F75               	movwf	(??___flge+1)& (0+255),b
  6031  01E0FE  0E80               	movlw	128
  6032  01E100  1572               	andwf	(___flge@ff2+2)& (0+255),w,b
  6033  01E102  6F76               	movwf	(??___flge+2)& (0+255),b
  6034  01E104  0E7F               	movlw	127
  6035  01E106  1573               	andwf	(___flge@ff2+3)& (0+255),w,b
  6036  01E108  6F77               	movwf	(??___flge+3)& (0+255),b
  6037  01E10A  5174               	movf	??___flge& (0+255),w,b
  6038  01E10C  1175               	iorwf	(??___flge+1)& (0+255),w,b
  6039  01E10E  1176               	iorwf	(??___flge+2)& (0+255),w,b
  6040  01E110  1177               	iorwf	(??___flge+3)& (0+255),w,b
  6041  01E112  A4D8               	btfss	status,2,c
  6042  01E114  EF8E  F0F0         	goto	u2981
  6043  01E118  EF90  F0F0         	goto	u2980
  6044  01E11C                     u2981:
  6045  01E11C  EF98  F0F0         	goto	l3112
  6046  01E120                     u2980:
  6047  01E120                     
  6048                           ; BSR set to: 0
  6049  01E120  0E00               	movlw	0
  6050  01E122  6F70               	movwf	___flge@ff2& (0+255),b
  6051  01E124  0E00               	movlw	0
  6052  01E126  6F71               	movwf	(___flge@ff2+1)& (0+255),b
  6053  01E128  0E00               	movlw	0
  6054  01E12A  6F72               	movwf	(___flge@ff2+2)& (0+255),b
  6055  01E12C  0E00               	movlw	0
  6056  01E12E  6F73               	movwf	(___flge@ff2+3)& (0+255),b
  6057  01E130                     l3112:
  6058                           
  6059                           ; BSR set to: 0
  6060  01E130  AF6F               	btfss	(___flge@ff1+3)& (0+255),7,b
  6061  01E132  EF9D  F0F0         	goto	u2991
  6062  01E136  EF9F  F0F0         	goto	u2990
  6063  01E13A                     u2991:
  6064  01E13A  EFA8  F0F0         	goto	l3116
  6065  01E13E                     u2990:
  6066  01E13E                     
  6067                           ; BSR set to: 0
  6068  01E13E  6D6C               	negf	___flge@ff1& (0+255),b
  6069  01E140  1F6D               	comf	(___flge@ff1+1)& (0+255),f,b
  6070  01E142  B0D8               	btfsc	status,0,c
  6071  01E144  2B6D               	incf	(___flge@ff1+1)& (0+255),f,b
  6072  01E146  1F6E               	comf	(___flge@ff1+2)& (0+255),f,b
  6073  01E148  B0D8               	btfsc	status,0,c
  6074  01E14A  2B6E               	incf	(___flge@ff1+2)& (0+255),f,b
  6075  01E14C  0E80               	movlw	128
  6076  01E14E  576F               	subfwb	(___flge@ff1+3)& (0+255),f,b
  6077  01E150                     l3116:
  6078                           
  6079                           ; BSR set to: 0
  6080  01E150  AF73               	btfss	(___flge@ff2+3)& (0+255),7,b
  6081  01E152  EFAD  F0F0         	goto	u3001
  6082  01E156  EFAF  F0F0         	goto	u3000
  6083  01E15A                     u3001:
  6084  01E15A  EFB8  F0F0         	goto	l501
  6085  01E15E                     u3000:
  6086  01E15E                     
  6087                           ; BSR set to: 0
  6088  01E15E  6D70               	negf	___flge@ff2& (0+255),b
  6089  01E160  1F71               	comf	(___flge@ff2+1)& (0+255),f,b
  6090  01E162  B0D8               	btfsc	status,0,c
  6091  01E164  2B71               	incf	(___flge@ff2+1)& (0+255),f,b
  6092  01E166  1F72               	comf	(___flge@ff2+2)& (0+255),f,b
  6093  01E168  B0D8               	btfsc	status,0,c
  6094  01E16A  2B72               	incf	(___flge@ff2+2)& (0+255),f,b
  6095  01E16C  0E80               	movlw	128
  6096  01E16E  5773               	subfwb	(___flge@ff2+3)& (0+255),f,b
  6097  01E170                     l501:
  6098                           
  6099                           ; BSR set to: 0
  6100  01E170  0E00               	movlw	0
  6101  01E172  1B6C               	xorwf	___flge@ff1& (0+255),f,b
  6102  01E174  0E00               	movlw	0
  6103  01E176  1B6D               	xorwf	(___flge@ff1+1)& (0+255),f,b
  6104  01E178  0E00               	movlw	0
  6105  01E17A  1B6E               	xorwf	(___flge@ff1+2)& (0+255),f,b
  6106  01E17C  0E80               	movlw	128
  6107  01E17E  1B6F               	xorwf	(___flge@ff1+3)& (0+255),f,b
  6108  01E180  0E00               	movlw	0
  6109  01E182  1B70               	xorwf	___flge@ff2& (0+255),f,b
  6110  01E184  0E00               	movlw	0
  6111  01E186  1B71               	xorwf	(___flge@ff2+1)& (0+255),f,b
  6112  01E188  0E00               	movlw	0
  6113  01E18A  1B72               	xorwf	(___flge@ff2+2)& (0+255),f,b
  6114  01E18C  0E80               	movlw	128
  6115  01E18E  1B73               	xorwf	(___flge@ff2+3)& (0+255),f,b
  6116  01E190  5170               	movf	___flge@ff2& (0+255),w,b
  6117  01E192  5D6C               	subwf	___flge@ff1& (0+255),w,b
  6118  01E194  5171               	movf	(___flge@ff2+1)& (0+255),w,b
  6119  01E196  596D               	subwfb	(___flge@ff1+1)& (0+255),w,b
  6120  01E198  5172               	movf	(___flge@ff2+2)& (0+255),w,b
  6121  01E19A  596E               	subwfb	(___flge@ff1+2)& (0+255),w,b
  6122  01E19C  5173               	movf	(___flge@ff2+3)& (0+255),w,b
  6123  01E19E  596F               	subwfb	(___flge@ff1+3)& (0+255),w,b
  6124  01E1A0  B0D8               	btfsc	status,0,c
  6125  01E1A2  EFD5  F0F0         	goto	u3011
  6126  01E1A6  EFD7  F0F0         	goto	u3010
  6127  01E1AA                     u3011:
  6128  01E1AA  EFDA  F0F0         	goto	l3122
  6129  01E1AE                     u3010:
  6130  01E1AE                     
  6131                           ; BSR set to: 0
  6132  01E1AE  90D8               	bcf	status,0,c
  6133  01E1B0  EFDB  F0F0         	goto	l506
  6134  01E1B4                     l3122:
  6135                           
  6136                           ; BSR set to: 0
  6137  01E1B4  80D8               	bsf	status,0,c
  6138  01E1B6                     l506:
  6139                           
  6140                           ; BSR set to: 0
  6141  01E1B6  0012               	return		;funcret
  6142  01E1B8                     __end_of___flge:
  6143                           	opt callstack 0
  6144                           
  6145 ;; *************** function ___awmod *****************
  6146 ;; Defined at:
  6147 ;;		line 7 in file "C:\Program Files (x86)\Microchip\xc8\v2.10\pic\sources\c99\common\awmod.c"
  6148 ;; Parameters:    Size  Location     Type
  6149 ;;  dividend        2   14[BANK0 ] int 
  6150 ;;  divisor         2   16[BANK0 ] int 
  6151 ;; Auto vars:     Size  Location     Type
  6152 ;;  sign            1   19[BANK0 ] unsigned char 
  6153 ;;  counter         1   18[BANK0 ] unsigned char 
  6154 ;; Return value:  Size  Location     Type
  6155 ;;                  2   14[BANK0 ] int 
  6156 ;; Registers used:
  6157 ;;		wreg, status,2, status,0
  6158 ;; Tracked objects:
  6159 ;;		On entry : 0/0
  6160 ;;		On exit  : 0/0
  6161 ;;		Unchanged: 0/0
  6162 ;; Data sizes:     COMRAM   BANK0   BANK1   BANK2   BANK3   BANK4   BANK5   BANK6   BANK7   BANK8   BANK9  BANK10  BANK1
      +1  BANK12  BANK13  BANK14
  6163 ;;      Params:         0       4       0       0       0       0       0       0       0       0       0       0       
      +0       0       0       0
  6164 ;;      Locals:         0       2       0       0       0       0       0       0       0       0       0       0       
      +0       0       0       0
  6165 ;;      Temps:          0       0       0       0       0       0       0       0       0       0       0       0       
      +0       0       0       0
  6166 ;;      Totals:         0       6       0       0       0       0       0       0       0       0       0       0       
      +0       0       0       0
  6167 ;;Total ram usage:        6 bytes
  6168 ;; Hardware stack levels used:    1
  6169 ;; This function calls:
  6170 ;;		Nothing
  6171 ;; This function is called by:
  6172 ;;		_main
  6173 ;; This function uses a non-reentrant model
  6174 ;;
  6175                           
  6176                           	psect	text18
  6177  01DD74                     __ptext18:
  6178                           	opt callstack 0
  6179  01DD74                     ___awmod:
  6180                           	opt callstack 30
  6181  01DD74  0E00               	movlw	0
  6182  01DD76  0100               	movlb	0	; () banked
  6183  01DD78  6F73               	movwf	___awmod@sign& (0+255),b
  6184  01DD7A                     
  6185                           ; BSR set to: 0
  6186  01DD7A  BF6F               	btfsc	(___awmod@dividend+1)& (0+255),7,b
  6187  01DD7C  EFC4  F0EE         	goto	u2910
  6188  01DD80  EFC2  F0EE         	goto	u2911
  6189  01DD84                     u2911:
  6190  01DD84  EFCA  F0EE         	goto	l3076
  6191  01DD88                     u2910:
  6192  01DD88                     
  6193                           ; BSR set to: 0
  6194  01DD88  6D6E               	negf	___awmod@dividend& (0+255),b
  6195  01DD8A  1F6F               	comf	(___awmod@dividend+1)& (0+255),f,b
  6196  01DD8C  B0D8               	btfsc	status,0,c
  6197  01DD8E  2B6F               	incf	(___awmod@dividend+1)& (0+255),f,b
  6198  01DD90                     
  6199                           ; BSR set to: 0
  6200  01DD90  0E01               	movlw	1
  6201  01DD92  6F73               	movwf	___awmod@sign& (0+255),b
  6202  01DD94                     l3076:
  6203                           
  6204                           ; BSR set to: 0
  6205  01DD94  BF71               	btfsc	(___awmod@divisor+1)& (0+255),7,b
  6206  01DD96  EFD1  F0EE         	goto	u2920
  6207  01DD9A  EFCF  F0EE         	goto	u2921
  6208  01DD9E                     u2921:
  6209  01DD9E  EFD5  F0EE         	goto	l3080
  6210  01DDA2                     u2920:
  6211  01DDA2                     
  6212                           ; BSR set to: 0
  6213  01DDA2  6D70               	negf	___awmod@divisor& (0+255),b
  6214  01DDA4  1F71               	comf	(___awmod@divisor+1)& (0+255),f,b
  6215  01DDA6  B0D8               	btfsc	status,0,c
  6216  01DDA8  2B71               	incf	(___awmod@divisor+1)& (0+255),f,b
  6217  01DDAA                     l3080:
  6218                           
  6219                           ; BSR set to: 0
  6220  01DDAA  5170               	movf	___awmod@divisor& (0+255),w,b
  6221  01DDAC  1171               	iorwf	(___awmod@divisor+1)& (0+255),w,b
  6222  01DDAE  B4D8               	btfsc	status,2,c
  6223  01DDB0  EFDC  F0EE         	goto	u2931
  6224  01DDB4  EFDE  F0EE         	goto	u2930
  6225  01DDB8                     u2931:
  6226  01DDB8  EF02  F0EF         	goto	l3096
  6227  01DDBC                     u2930:
  6228  01DDBC                     
  6229                           ; BSR set to: 0
  6230  01DDBC  0E01               	movlw	1
  6231  01DDBE  6F72               	movwf	___awmod@counter& (0+255),b
  6232  01DDC0  EFE6  F0EE         	goto	l3086
  6233  01DDC4                     l3084:
  6234                           
  6235                           ; BSR set to: 0
  6236  01DDC4  90D8               	bcf	status,0,c
  6237  01DDC6  3770               	rlcf	___awmod@divisor& (0+255),f,b
  6238  01DDC8  3771               	rlcf	(___awmod@divisor+1)& (0+255),f,b
  6239  01DDCA  2B72               	incf	___awmod@counter& (0+255),f,b
  6240  01DDCC                     l3086:
  6241                           
  6242                           ; BSR set to: 0
  6243  01DDCC  AF71               	btfss	(___awmod@divisor+1)& (0+255),7,b
  6244  01DDCE  EFEB  F0EE         	goto	u2941
  6245  01DDD2  EFED  F0EE         	goto	u2940
  6246  01DDD6                     u2941:
  6247  01DDD6  EFE2  F0EE         	goto	l3084
  6248  01DDDA                     u2940:
  6249  01DDDA                     l3088:
  6250                           
  6251                           ; BSR set to: 0
  6252  01DDDA  5170               	movf	___awmod@divisor& (0+255),w,b
  6253  01DDDC  5D6E               	subwf	___awmod@dividend& (0+255),w,b
  6254  01DDDE  5171               	movf	(___awmod@divisor+1)& (0+255),w,b
  6255  01DDE0  596F               	subwfb	(___awmod@dividend+1)& (0+255),w,b
  6256  01DDE2  A0D8               	btfss	status,0,c
  6257  01DDE4  EFF6  F0EE         	goto	u2951
  6258  01DDE8  EFF8  F0EE         	goto	u2950
  6259  01DDEC                     u2951:
  6260  01DDEC  EFFC  F0EE         	goto	l3092
  6261  01DDF0                     u2950:
  6262  01DDF0                     
  6263                           ; BSR set to: 0
  6264  01DDF0  5170               	movf	___awmod@divisor& (0+255),w,b
  6265  01DDF2  5F6E               	subwf	___awmod@dividend& (0+255),f,b
  6266  01DDF4  5171               	movf	(___awmod@divisor+1)& (0+255),w,b
  6267  01DDF6  5B6F               	subwfb	(___awmod@dividend+1)& (0+255),f,b
  6268  01DDF8                     l3092:
  6269                           
  6270                           ; BSR set to: 0
  6271  01DDF8  90D8               	bcf	status,0,c
  6272  01DDFA  3371               	rrcf	(___awmod@divisor+1)& (0+255),f,b
  6273  01DDFC  3370               	rrcf	___awmod@divisor& (0+255),f,b
  6274  01DDFE                     
  6275                           ; BSR set to: 0
  6276  01DDFE  2F72               	decfsz	___awmod@counter& (0+255),f,b
  6277  01DE00  EFED  F0EE         	goto	l3088
  6278  01DE04                     l3096:
  6279                           
  6280                           ; BSR set to: 0
  6281  01DE04  5173               	movf	___awmod@sign& (0+255),w,b
  6282  01DE06  B4D8               	btfsc	status,2,c
  6283  01DE08  EF08  F0EF         	goto	u2961
  6284  01DE0C  EF0A  F0EF         	goto	u2960
  6285  01DE10                     u2961:
  6286  01DE10  EF0E  F0EF         	goto	l3100
  6287  01DE14                     u2960:
  6288  01DE14                     
  6289                           ; BSR set to: 0
  6290  01DE14  6D6E               	negf	___awmod@dividend& (0+255),b
  6291  01DE16  1F6F               	comf	(___awmod@dividend+1)& (0+255),f,b
  6292  01DE18  B0D8               	btfsc	status,0,c
  6293  01DE1A  2B6F               	incf	(___awmod@dividend+1)& (0+255),f,b
  6294  01DE1C                     l3100:
  6295                           
  6296                           ; BSR set to: 0
  6297  01DE1C  C06E  F06E         	movff	___awmod@dividend,?___awmod
  6298  01DE20  C06F  F06F         	movff	___awmod@dividend+1,?___awmod+1
  6299  01DE24                     
  6300                           ; BSR set to: 0
  6301  01DE24  0012               	return		;funcret
  6302  01DE26                     __end_of___awmod:
  6303                           	opt callstack 0
  6304                           
  6305 ;; *************** function ___awdiv *****************
  6306 ;; Defined at:
  6307 ;;		line 7 in file "C:\Program Files (x86)\Microchip\xc8\v2.10\pic\sources\c99\common\awdiv.c"
  6308 ;; Parameters:    Size  Location     Type
  6309 ;;  dividend        2   10[COMRAM] int 
  6310 ;;  divisor         2   12[COMRAM] int 
  6311 ;; Auto vars:     Size  Location     Type
  6312 ;;  quotient        2   16[COMRAM] int 
  6313 ;;  sign            1   15[COMRAM] unsigned char 
  6314 ;;  counter         1   14[COMRAM] unsigned char 
  6315 ;; Return value:  Size  Location     Type
  6316 ;;                  2   10[COMRAM] int 
  6317 ;; Registers used:
  6318 ;;		wreg, status,2, status,0
  6319 ;; Tracked objects:
  6320 ;;		On entry : 0/0
  6321 ;;		On exit  : 0/0
  6322 ;;		Unchanged: 0/0
  6323 ;; Data sizes:     COMRAM   BANK0   BANK1   BANK2   BANK3   BANK4   BANK5   BANK6   BANK7   BANK8   BANK9  BANK10  BANK1
      +1  BANK12  BANK13  BANK14
  6324 ;;      Params:         4       0       0       0       0       0       0       0       0       0       0       0       
      +0       0       0       0
  6325 ;;      Locals:         4       0       0       0       0       0       0       0       0       0       0       0       
      +0       0       0       0
  6326 ;;      Temps:          0       0       0       0       0       0       0       0       0       0       0       0       
      +0       0       0       0
  6327 ;;      Totals:         8       0       0       0       0       0       0       0       0       0       0       0       
      +0       0       0       0
  6328 ;;Total ram usage:        8 bytes
  6329 ;; Hardware stack levels used:    1
  6330 ;; This function calls:
  6331 ;;		Nothing
  6332 ;; This function is called by:
  6333 ;;		_main
  6334 ;; This function uses a non-reentrant model
  6335 ;;
  6336                           
  6337                           	psect	text19
  6338  01DE26                     __ptext19:
  6339                           	opt callstack 0
  6340  01DE26                     ___awdiv:
  6341                           	opt callstack 30
  6342  01DE26  0E00               	movlw	0
  6343  01DE28  6E10               	movwf	___awdiv@sign^0,c
  6344  01DE2A  BE0E               	btfsc	(___awdiv@divisor+1)^0,7,c
  6345  01DE2C  EF1C  F0EF         	goto	u2850
  6346  01DE30  EF1A  F0EF         	goto	u2851
  6347  01DE34                     u2851:
  6348  01DE34  EF22  F0EF         	goto	l3032
  6349  01DE38                     u2850:
  6350  01DE38  6C0D               	negf	___awdiv@divisor^0,c
  6351  01DE3A  1E0E               	comf	(___awdiv@divisor+1)^0,f,c
  6352  01DE3C  B0D8               	btfsc	status,0,c
  6353  01DE3E  2A0E               	incf	(___awdiv@divisor+1)^0,f,c
  6354  01DE40  0E01               	movlw	1
  6355  01DE42  6E10               	movwf	___awdiv@sign^0,c
  6356  01DE44                     l3032:
  6357  01DE44  BE0C               	btfsc	(___awdiv@dividend+1)^0,7,c
  6358  01DE46  EF29  F0EF         	goto	u2860
  6359  01DE4A  EF27  F0EF         	goto	u2861
  6360  01DE4E                     u2861:
  6361  01DE4E  EF2F  F0EF         	goto	l3038
  6362  01DE52                     u2860:
  6363  01DE52  6C0B               	negf	___awdiv@dividend^0,c
  6364  01DE54  1E0C               	comf	(___awdiv@dividend+1)^0,f,c
  6365  01DE56  B0D8               	btfsc	status,0,c
  6366  01DE58  2A0C               	incf	(___awdiv@dividend+1)^0,f,c
  6367  01DE5A  0E01               	movlw	1
  6368  01DE5C  1A10               	xorwf	___awdiv@sign^0,f,c
  6369  01DE5E                     l3038:
  6370  01DE5E  0E00               	movlw	0
  6371  01DE60  6E12               	movwf	(___awdiv@quotient+1)^0,c
  6372  01DE62  0E00               	movlw	0
  6373  01DE64  6E11               	movwf	___awdiv@quotient^0,c
  6374  01DE66  500D               	movf	___awdiv@divisor^0,w,c
  6375  01DE68  100E               	iorwf	(___awdiv@divisor+1)^0,w,c
  6376  01DE6A  B4D8               	btfsc	status,2,c
  6377  01DE6C  EF3A  F0EF         	goto	u2871
  6378  01DE70  EF3C  F0EF         	goto	u2870
  6379  01DE74                     u2871:
  6380  01DE74  EF64  F0EF         	goto	l3060
  6381  01DE78                     u2870:
  6382  01DE78  0E01               	movlw	1
  6383  01DE7A  6E0F               	movwf	___awdiv@counter^0,c
  6384  01DE7C  EF44  F0EF         	goto	l3046
  6385  01DE80                     l3044:
  6386  01DE80  90D8               	bcf	status,0,c
  6387  01DE82  360D               	rlcf	___awdiv@divisor^0,f,c
  6388  01DE84  360E               	rlcf	(___awdiv@divisor+1)^0,f,c
  6389  01DE86  2A0F               	incf	___awdiv@counter^0,f,c
  6390  01DE88                     l3046:
  6391  01DE88  AE0E               	btfss	(___awdiv@divisor+1)^0,7,c
  6392  01DE8A  EF49  F0EF         	goto	u2881
  6393  01DE8E  EF4B  F0EF         	goto	u2880
  6394  01DE92                     u2881:
  6395  01DE92  EF40  F0EF         	goto	l3044
  6396  01DE96                     u2880:
  6397  01DE96                     l3048:
  6398  01DE96  90D8               	bcf	status,0,c
  6399  01DE98  3611               	rlcf	___awdiv@quotient^0,f,c
  6400  01DE9A  3612               	rlcf	(___awdiv@quotient+1)^0,f,c
  6401  01DE9C  500D               	movf	___awdiv@divisor^0,w,c
  6402  01DE9E  5C0B               	subwf	___awdiv@dividend^0,w,c
  6403  01DEA0  500E               	movf	(___awdiv@divisor+1)^0,w,c
  6404  01DEA2  580C               	subwfb	(___awdiv@dividend+1)^0,w,c
  6405  01DEA4  A0D8               	btfss	status,0,c
  6406  01DEA6  EF57  F0EF         	goto	u2891
  6407  01DEAA  EF59  F0EF         	goto	u2890
  6408  01DEAE                     u2891:
  6409  01DEAE  EF5E  F0EF         	goto	l3056
  6410  01DEB2                     u2890:
  6411  01DEB2  500D               	movf	___awdiv@divisor^0,w,c
  6412  01DEB4  5E0B               	subwf	___awdiv@dividend^0,f,c
  6413  01DEB6  500E               	movf	(___awdiv@divisor+1)^0,w,c
  6414  01DEB8  5A0C               	subwfb	(___awdiv@dividend+1)^0,f,c
  6415  01DEBA  8011               	bsf	___awdiv@quotient^0,0,c
  6416  01DEBC                     l3056:
  6417  01DEBC  90D8               	bcf	status,0,c
  6418  01DEBE  320E               	rrcf	(___awdiv@divisor+1)^0,f,c
  6419  01DEC0  320D               	rrcf	___awdiv@divisor^0,f,c
  6420  01DEC2  2E0F               	decfsz	___awdiv@counter^0,f,c
  6421  01DEC4  EF4B  F0EF         	goto	l3048
  6422  01DEC8                     l3060:
  6423  01DEC8  5010               	movf	___awdiv@sign^0,w,c
  6424  01DECA  B4D8               	btfsc	status,2,c
  6425  01DECC  EF6A  F0EF         	goto	u2901
  6426  01DED0  EF6C  F0EF         	goto	u2900
  6427  01DED4                     u2901:
  6428  01DED4  EF70  F0EF         	goto	l3064
  6429  01DED8                     u2900:
  6430  01DED8  6C11               	negf	___awdiv@quotient^0,c
  6431  01DEDA  1E12               	comf	(___awdiv@quotient+1)^0,f,c
  6432  01DEDC  B0D8               	btfsc	status,0,c
  6433  01DEDE  2A12               	incf	(___awdiv@quotient+1)^0,f,c
  6434  01DEE0                     l3064:
  6435  01DEE0  C011  F00B         	movff	___awdiv@quotient,?___awdiv
  6436  01DEE4  C012  F00C         	movff	___awdiv@quotient+1,?___awdiv+1
  6437  01DEE8  0012               	return		;funcret
  6438  01DEEA                     __end_of___awdiv:
  6439                           	opt callstack 0
  6440  0000                     
  6441                           	psect	rparam
  6442  0000                     tosu	equ	0xFFF
  6443                           tosh	equ	0xFFE
  6444                           tosl	equ	0xFFD
  6445                           stkptr	equ	0xFFC
  6446                           pclatu	equ	0xFFB
  6447                           pclath	equ	0xFFA
  6448                           pcl	equ	0xFF9
  6449                           tblptru	equ	0xFF8
  6450                           tblptrh	equ	0xFF7
  6451                           tblptrl	equ	0xFF6
  6452                           tablat	equ	0xFF5
  6453                           prodh	equ	0xFF4
  6454                           prodl	equ	0xFF3
  6455                           indf0	equ	0xFEF
  6456                           postinc0	equ	0xFEE
  6457                           postdec0	equ	0xFED
  6458                           preinc0	equ	0xFEC
  6459                           plusw0	equ	0xFEB
  6460                           fsr0h	equ	0xFEA
  6461                           fsr0l	equ	0xFE9
  6462                           wreg	equ	0xFE8
  6463                           indf1	equ	0xFE7
  6464                           postinc1	equ	0xFE6
  6465                           postdec1	equ	0xFE5
  6466                           preinc1	equ	0xFE4
  6467                           plusw1	equ	0xFE3
  6468                           fsr1h	equ	0xFE2
  6469                           fsr1l	equ	0xFE1
  6470                           bsr	equ	0xFE0
  6471                           indf2	equ	0xFDF
  6472                           postinc2	equ	0xFDE
  6473                           postdec2	equ	0xFDD
  6474                           preinc2	equ	0xFDC
  6475                           plusw2	equ	0xFDB
  6476                           fsr2h	equ	0xFDA
  6477                           fsr2l	equ	0xFD9
  6478                           status	equ	0xFD8


Data Sizes:
    Strings     0
    Constant    0
    Data        4
    BSS         32
    Persistent  0
    Stack       0

Auto Spaces:
    Space          Size  Autos    Used
    COMRAM           95     94      94
    BANK0           160     92     128
    BANK1           256      0       0
    BANK2           256      0       0
    BANK3           256      0       0
    BANK4           256      0       0
    BANK5           256      0       0
    BANK6           256      0       0
    BANK7           256      0       0
    BANK8           256      0       0
    BANK9           256      0       0
    BANK10          256      0       0
    BANK11          256      0       0
    BANK12          256      0       0
    BANK13          256      0       0
    BANK14          136      0       0

Pointer List with Targets:

    None.

Critical Paths under _main in COMRAM

    _main->___fladd
    _ccpNum0->___fladd
    ___xxtofl->___awdiv
    ___fltol->___fladd
    ___flmul->___xxtofl
    ___fldiv->___flmul
    ___wmul->_abs
    ___llmod->___lldiv
    ___flsub->___fladd
    ___fladd->___fldiv
    ___flge->___fladd
    ___awdiv->___wmul

Critical Paths under _main in BANK0

    _main->_ccpNum0
    _ccpNum0->___fltol
    ___fltol->___fladd
    ___flsub->___fladd
    ___flge->___flsub
    ___awmod->___fltol

Critical Paths under _main in BANK1

    None.

Critical Paths under _main in BANK2

    None.

Critical Paths under _main in BANK3

    None.

Critical Paths under _main in BANK4

    None.

Critical Paths under _main in BANK5

    None.

Critical Paths under _main in BANK6

    None.

Critical Paths under _main in BANK7

    None.

Critical Paths under _main in BANK8

    None.

Critical Paths under _main in BANK9

    None.

Critical Paths under _main in BANK10

    None.

Critical Paths under _main in BANK11

    None.

Critical Paths under _main in BANK12

    None.

Critical Paths under _main in BANK13

    None.

Critical Paths under _main in BANK14

    None.

Call Graph Tables:

 ---------------------------------------------------------------------------------
 (Depth) Function   	        Calls       Base Space   Used Autos Params    Refs
 ---------------------------------------------------------------------------------
 (0) _main                                                64    64      0   26928
                                             28 BANK0     64    64      0
                            ___awdiv
                            ___awmod
                            ___fladd
                            ___fldiv
                             ___flge
                            ___flmul
                            ___flsub
                            ___fltol
                            ___lldiv
                            ___llmod
                             ___wmul
                           ___xxtofl
                                _abs
                            _adcNum0
                           _adc_init
                            _ccpNum0
                           _ccp_init
                          _steptakeL
                          _steptakeR
 ---------------------------------------------------------------------------------
 (1) _steptakeR                                            4     2      2     804
                                              0 COMRAM     4     2      2
 ---------------------------------------------------------------------------------
 (1) _steptakeL                                            4     2      2     652
                                              0 COMRAM     4     2      2
 ---------------------------------------------------------------------------------
 (1) _ccp_init                                             0     0      0       0
 ---------------------------------------------------------------------------------
 (1) _ccpNum0                                             14    10      4    8708
                                             14 BANK0     14    10      4
                            ___fladd
                            ___fldiv
                            ___flmul
                            ___fltol
                           ___xxtofl
 ---------------------------------------------------------------------------------
 (2) ___xxtofl                                            14    10      4    1310
                                             18 COMRAM    14    10      4
                            ___awdiv (ARG)
                             ___wmul (ARG)
                                _abs (ARG)
 ---------------------------------------------------------------------------------
 (2) ___fltol                                             10     6      4     533
                                              4 BANK0     10     6      4
                            ___fladd (ARG)
                            ___fldiv (ARG)
                            ___flmul (ARG)
                           ___xxtofl (ARG)
 ---------------------------------------------------------------------------------
 (2) ___flmul                                             25    17      8    2048
                                             32 COMRAM    25    17      8
                           ___xxtofl (ARG)
                                _abs (ARG)
 ---------------------------------------------------------------------------------
 (2) ___fldiv                                             25    17      8    1855
                                             57 COMRAM    25    17      8
                            ___flmul (ARG)
                           ___xxtofl (ARG)
 ---------------------------------------------------------------------------------
 (1) _adc_init                                             0     0      0       0
 ---------------------------------------------------------------------------------
 (1) _adcNum0                                              7     3      4       0
                                              0 COMRAM     7     3      4
 ---------------------------------------------------------------------------------
 (1) _abs                                                  4     2      2     674
                                              0 COMRAM     4     2      2
 ---------------------------------------------------------------------------------
 (1) ___wmul                                               6     2      4     767
                                              4 COMRAM     6     2      4
                                _abs (ARG)
 ---------------------------------------------------------------------------------
 (1) ___llmod                                              9     1      8     311
                                             13 COMRAM     9     1      8
                            ___lldiv (ARG)
 ---------------------------------------------------------------------------------
 (1) ___lldiv                                             13     5      8     770
                                              0 COMRAM    13     5      8
 ---------------------------------------------------------------------------------
 (1) ___flsub                                              8     0      8    3193
                                              4 BANK0      8     0      8
                            ___awdiv (ARG)
                            ___fladd
                            ___flmul (ARG)
                             ___wmul (ARG)
                           ___xxtofl (ARG)
                                _abs (ARG)
 ---------------------------------------------------------------------------------
 (2) ___fladd                                             16     8      8    2870
                                             82 COMRAM    12     4      8
                                              0 BANK0      4     4      0
                            ___awdiv (ARG)
                            ___fldiv (ARG)
                            ___flmul (ARG)
                             ___wmul (ARG)
                           ___xxtofl (ARG)
 ---------------------------------------------------------------------------------
 (1) ___flge                                              12     4      8     486
                                             12 BANK0     12     4      8
                            ___awdiv (ARG)
                            ___fladd (ARG)
                            ___flmul (ARG)
                            ___flsub (ARG)
                             ___wmul (ARG)
                           ___xxtofl (ARG)
                                _abs (ARG)
 ---------------------------------------------------------------------------------
 (1) ___awmod                                              6     2      4     448
                                             14 BANK0      6     2      4
                            ___fldiv (ARG)
                            ___fltol (ARG)
                           ___xxtofl (ARG)
 ---------------------------------------------------------------------------------
 (1) ___awdiv                                              8     4      4     756
                                             10 COMRAM     8     4      4
                             ___wmul (ARG)
 ---------------------------------------------------------------------------------
 Estimated maximum stack depth 2
 ---------------------------------------------------------------------------------

 Call Graph Graphs:

 _main (ROOT)
   ___awdiv
     ___wmul (ARG)
       _abs (ARG)
   ___awmod
     ___fldiv (ARG)
       ___flmul (ARG)
         ___xxtofl (ARG)
           ___awdiv (ARG)
             ___wmul (ARG)
               _abs (ARG)
           ___wmul (ARG)
             _abs (ARG)
           _abs (ARG)
         _abs (ARG)
       ___xxtofl (ARG)
         ___awdiv (ARG)
           ___wmul (ARG)
             _abs (ARG)
         ___wmul (ARG)
           _abs (ARG)
         _abs (ARG)
     ___fltol (ARG)
       ___fladd (ARG)
         ___awdiv (ARG)
           ___wmul (ARG)
             _abs (ARG)
         ___fldiv (ARG)
           ___flmul (ARG)
             ___xxtofl (ARG)
               ___awdiv (ARG)
                 ___wmul (ARG)
                   _abs (ARG)
               ___wmul (ARG)
                 _abs (ARG)
               _abs (ARG)
             _abs (ARG)
           ___xxtofl (ARG)
             ___awdiv (ARG)
               ___wmul (ARG)
                 _abs (ARG)
             ___wmul (ARG)
               _abs (ARG)
             _abs (ARG)
         ___flmul (ARG)
           ___xxtofl (ARG)
             ___awdiv (ARG)
               ___wmul (ARG)
                 _abs (ARG)
             ___wmul (ARG)
               _abs (ARG)
             _abs (ARG)
           _abs (ARG)
         ___wmul (ARG)
           _abs (ARG)
         ___xxtofl (ARG)
           ___awdiv (ARG)
             ___wmul (ARG)
               _abs (ARG)
           ___wmul (ARG)
             _abs (ARG)
           _abs (ARG)
       ___fldiv (ARG)
         ___flmul (ARG)
           ___xxtofl (ARG)
             ___awdiv (ARG)
               ___wmul (ARG)
                 _abs (ARG)
             ___wmul (ARG)
               _abs (ARG)
             _abs (ARG)
           _abs (ARG)
         ___xxtofl (ARG)
           ___awdiv (ARG)
             ___wmul (ARG)
               _abs (ARG)
           ___wmul (ARG)
             _abs (ARG)
           _abs (ARG)
       ___flmul (ARG)
         ___xxtofl (ARG)
           ___awdiv (ARG)
             ___wmul (ARG)
               _abs (ARG)
           ___wmul (ARG)
             _abs (ARG)
           _abs (ARG)
         _abs (ARG)
       ___xxtofl (ARG)
         ___awdiv (ARG)
           ___wmul (ARG)
             _abs (ARG)
         ___wmul (ARG)
           _abs (ARG)
         _abs (ARG)
     ___xxtofl (ARG)
       ___awdiv (ARG)
         ___wmul (ARG)
           _abs (ARG)
       ___wmul (ARG)
         _abs (ARG)
       _abs (ARG)
   ___fladd
     ___awdiv (ARG)
       ___wmul (ARG)
         _abs (ARG)
     ___fldiv (ARG)
       ___flmul (ARG)
         ___xxtofl (ARG)
           ___awdiv (ARG)
             ___wmul (ARG)
               _abs (ARG)
           ___wmul (ARG)
             _abs (ARG)
           _abs (ARG)
         _abs (ARG)
       ___xxtofl (ARG)
         ___awdiv (ARG)
           ___wmul (ARG)
             _abs (ARG)
         ___wmul (ARG)
           _abs (ARG)
         _abs (ARG)
     ___flmul (ARG)
       ___xxtofl (ARG)
         ___awdiv (ARG)
           ___wmul (ARG)
             _abs (ARG)
         ___wmul (ARG)
           _abs (ARG)
         _abs (ARG)
       _abs (ARG)
     ___wmul (ARG)
       _abs (ARG)
     ___xxtofl (ARG)
       ___awdiv (ARG)
         ___wmul (ARG)
           _abs (ARG)
       ___wmul (ARG)
         _abs (ARG)
       _abs (ARG)
   ___fldiv
     ___flmul (ARG)
       ___xxtofl (ARG)
         ___awdiv (ARG)
           ___wmul (ARG)
             _abs (ARG)
         ___wmul (ARG)
           _abs (ARG)
         _abs (ARG)
       _abs (ARG)
     ___xxtofl (ARG)
       ___awdiv (ARG)
         ___wmul (ARG)
           _abs (ARG)
       ___wmul (ARG)
         _abs (ARG)
       _abs (ARG)
   ___flge
     ___awdiv (ARG)
       ___wmul (ARG)
         _abs (ARG)
     ___fladd (ARG)
       ___awdiv (ARG)
         ___wmul (ARG)
           _abs (ARG)
       ___fldiv (ARG)
         ___flmul (ARG)
           ___xxtofl (ARG)
             ___awdiv (ARG)
               ___wmul (ARG)
                 _abs (ARG)
             ___wmul (ARG)
               _abs (ARG)
             _abs (ARG)
           _abs (ARG)
         ___xxtofl (ARG)
           ___awdiv (ARG)
             ___wmul (ARG)
               _abs (ARG)
           ___wmul (ARG)
             _abs (ARG)
           _abs (ARG)
       ___flmul (ARG)
         ___xxtofl (ARG)
           ___awdiv (ARG)
             ___wmul (ARG)
               _abs (ARG)
           ___wmul (ARG)
             _abs (ARG)
           _abs (ARG)
         _abs (ARG)
       ___wmul (ARG)
         _abs (ARG)
       ___xxtofl (ARG)
         ___awdiv (ARG)
           ___wmul (ARG)
             _abs (ARG)
         ___wmul (ARG)
           _abs (ARG)
         _abs (ARG)
     ___flmul (ARG)
       ___xxtofl (ARG)
         ___awdiv (ARG)
           ___wmul (ARG)
             _abs (ARG)
         ___wmul (ARG)
           _abs (ARG)
         _abs (ARG)
       _abs (ARG)
     ___flsub (ARG)
       ___awdiv (ARG)
         ___wmul (ARG)
           _abs (ARG)
       ___fladd (ARG)
         ___awdiv (ARG)
           ___wmul (ARG)
             _abs (ARG)
         ___fldiv (ARG)
           ___flmul (ARG)
             ___xxtofl (ARG)
               ___awdiv (ARG)
                 ___wmul (ARG)
                   _abs (ARG)
               ___wmul (ARG)
                 _abs (ARG)
               _abs (ARG)
             _abs (ARG)
           ___xxtofl (ARG)
             ___awdiv (ARG)
               ___wmul (ARG)
                 _abs (ARG)
             ___wmul (ARG)
               _abs (ARG)
             _abs (ARG)
         ___flmul (ARG)
           ___xxtofl (ARG)
             ___awdiv (ARG)
               ___wmul (ARG)
                 _abs (ARG)
             ___wmul (ARG)
               _abs (ARG)
             _abs (ARG)
           _abs (ARG)
         ___wmul (ARG)
           _abs (ARG)
         ___xxtofl (ARG)
           ___awdiv (ARG)
             ___wmul (ARG)
               _abs (ARG)
           ___wmul (ARG)
             _abs (ARG)
           _abs (ARG)
       ___flmul (ARG)
         ___xxtofl (ARG)
           ___awdiv (ARG)
             ___wmul (ARG)
               _abs (ARG)
           ___wmul (ARG)
             _abs (ARG)
           _abs (ARG)
         _abs (ARG)
       ___wmul (ARG)
         _abs (ARG)
       ___xxtofl (ARG)
         ___awdiv (ARG)
           ___wmul (ARG)
             _abs (ARG)
         ___wmul (ARG)
           _abs (ARG)
         _abs (ARG)
       _abs (ARG)
     ___wmul (ARG)
       _abs (ARG)
     ___xxtofl (ARG)
       ___awdiv (ARG)
         ___wmul (ARG)
           _abs (ARG)
       ___wmul (ARG)
         _abs (ARG)
       _abs (ARG)
     _abs (ARG)
   ___flmul
     ___xxtofl (ARG)
       ___awdiv (ARG)
         ___wmul (ARG)
           _abs (ARG)
       ___wmul (ARG)
         _abs (ARG)
       _abs (ARG)
     _abs (ARG)
   ___flsub
     ___awdiv (ARG)
       ___wmul (ARG)
         _abs (ARG)
     ___fladd (ARG)
       ___awdiv (ARG)
         ___wmul (ARG)
           _abs (ARG)
       ___fldiv (ARG)
         ___flmul (ARG)
           ___xxtofl (ARG)
             ___awdiv (ARG)
               ___wmul (ARG)
                 _abs (ARG)
             ___wmul (ARG)
               _abs (ARG)
             _abs (ARG)
           _abs (ARG)
         ___xxtofl (ARG)
           ___awdiv (ARG)
             ___wmul (ARG)
               _abs (ARG)
           ___wmul (ARG)
             _abs (ARG)
           _abs (ARG)
       ___flmul (ARG)
         ___xxtofl (ARG)
           ___awdiv (ARG)
             ___wmul (ARG)
               _abs (ARG)
           ___wmul (ARG)
             _abs (ARG)
           _abs (ARG)
         _abs (ARG)
       ___wmul (ARG)
         _abs (ARG)
       ___xxtofl (ARG)
         ___awdiv (ARG)
           ___wmul (ARG)
             _abs (ARG)
         ___wmul (ARG)
           _abs (ARG)
         _abs (ARG)
     ___flmul (ARG)
       ___xxtofl (ARG)
         ___awdiv (ARG)
           ___wmul (ARG)
             _abs (ARG)
         ___wmul (ARG)
           _abs (ARG)
         _abs (ARG)
       _abs (ARG)
     ___wmul (ARG)
       _abs (ARG)
     ___xxtofl (ARG)
       ___awdiv (ARG)
         ___wmul (ARG)
           _abs (ARG)
       ___wmul (ARG)
         _abs (ARG)
       _abs (ARG)
     _abs (ARG)
   ___fltol
     ___fladd (ARG)
       ___awdiv (ARG)
         ___wmul (ARG)
           _abs (ARG)
       ___fldiv (ARG)
         ___flmul (ARG)
           ___xxtofl (ARG)
             ___awdiv (ARG)
               ___wmul (ARG)
                 _abs (ARG)
             ___wmul (ARG)
               _abs (ARG)
             _abs (ARG)
           _abs (ARG)
         ___xxtofl (ARG)
           ___awdiv (ARG)
             ___wmul (ARG)
               _abs (ARG)
           ___wmul (ARG)
             _abs (ARG)
           _abs (ARG)
       ___flmul (ARG)
         ___xxtofl (ARG)
           ___awdiv (ARG)
             ___wmul (ARG)
               _abs (ARG)
           ___wmul (ARG)
             _abs (ARG)
           _abs (ARG)
         _abs (ARG)
       ___wmul (ARG)
         _abs (ARG)
       ___xxtofl (ARG)
         ___awdiv (ARG)
           ___wmul (ARG)
             _abs (ARG)
         ___wmul (ARG)
           _abs (ARG)
         _abs (ARG)
     ___fldiv (ARG)
       ___flmul (ARG)
         ___xxtofl (ARG)
           ___awdiv (ARG)
             ___wmul (ARG)
               _abs (ARG)
           ___wmul (ARG)
             _abs (ARG)
           _abs (ARG)
         _abs (ARG)
       ___xxtofl (ARG)
         ___awdiv (ARG)
           ___wmul (ARG)
             _abs (ARG)
         ___wmul (ARG)
           _abs (ARG)
         _abs (ARG)
     ___flmul (ARG)
       ___xxtofl (ARG)
         ___awdiv (ARG)
           ___wmul (ARG)
             _abs (ARG)
         ___wmul (ARG)
           _abs (ARG)
         _abs (ARG)
       _abs (ARG)
     ___xxtofl (ARG)
       ___awdiv (ARG)
         ___wmul (ARG)
           _abs (ARG)
       ___wmul (ARG)
         _abs (ARG)
       _abs (ARG)
   ___lldiv
   ___llmod
     ___lldiv (ARG)
   ___wmul
     _abs (ARG)
   ___xxtofl
     ___awdiv (ARG)
       ___wmul (ARG)
         _abs (ARG)
     ___wmul (ARG)
       _abs (ARG)
     _abs (ARG)
   _abs
   _adcNum0
   _adc_init
   _ccpNum0
     ___fladd
       ___awdiv (ARG)
         ___wmul (ARG)
           _abs (ARG)
       ___fldiv (ARG)
         ___flmul (ARG)
           ___xxtofl (ARG)
             ___awdiv (ARG)
               ___wmul (ARG)
                 _abs (ARG)
             ___wmul (ARG)
               _abs (ARG)
             _abs (ARG)
           _abs (ARG)
         ___xxtofl (ARG)
           ___awdiv (ARG)
             ___wmul (ARG)
               _abs (ARG)
           ___wmul (ARG)
             _abs (ARG)
           _abs (ARG)
       ___flmul (ARG)
         ___xxtofl (ARG)
           ___awdiv (ARG)
             ___wmul (ARG)
               _abs (ARG)
           ___wmul (ARG)
             _abs (ARG)
           _abs (ARG)
         _abs (ARG)
       ___wmul (ARG)
         _abs (ARG)
       ___xxtofl (ARG)
         ___awdiv (ARG)
           ___wmul (ARG)
             _abs (ARG)
         ___wmul (ARG)
           _abs (ARG)
         _abs (ARG)
     ___fldiv
       ___flmul (ARG)
         ___xxtofl (ARG)
           ___awdiv (ARG)
             ___wmul (ARG)
               _abs (ARG)
           ___wmul (ARG)
             _abs (ARG)
           _abs (ARG)
         _abs (ARG)
       ___xxtofl (ARG)
         ___awdiv (ARG)
           ___wmul (ARG)
             _abs (ARG)
         ___wmul (ARG)
           _abs (ARG)
         _abs (ARG)
     ___flmul
       ___xxtofl (ARG)
         ___awdiv (ARG)
           ___wmul (ARG)
             _abs (ARG)
         ___wmul (ARG)
           _abs (ARG)
         _abs (ARG)
       _abs (ARG)
     ___fltol
       ___fladd (ARG)
         ___awdiv (ARG)
           ___wmul (ARG)
             _abs (ARG)
         ___fldiv (ARG)
           ___flmul (ARG)
             ___xxtofl (ARG)
               ___awdiv (ARG)
                 ___wmul (ARG)
                   _abs (ARG)
               ___wmul (ARG)
                 _abs (ARG)
               _abs (ARG)
             _abs (ARG)
           ___xxtofl (ARG)
             ___awdiv (ARG)
               ___wmul (ARG)
                 _abs (ARG)
             ___wmul (ARG)
               _abs (ARG)
             _abs (ARG)
         ___flmul (ARG)
           ___xxtofl (ARG)
             ___awdiv (ARG)
               ___wmul (ARG)
                 _abs (ARG)
             ___wmul (ARG)
               _abs (ARG)
             _abs (ARG)
           _abs (ARG)
         ___wmul (ARG)
           _abs (ARG)
         ___xxtofl (ARG)
           ___awdiv (ARG)
             ___wmul (ARG)
               _abs (ARG)
           ___wmul (ARG)
             _abs (ARG)
           _abs (ARG)
       ___fldiv (ARG)
         ___flmul (ARG)
           ___xxtofl (ARG)
             ___awdiv (ARG)
               ___wmul (ARG)
                 _abs (ARG)
             ___wmul (ARG)
               _abs (ARG)
             _abs (ARG)
           _abs (ARG)
         ___xxtofl (ARG)
           ___awdiv (ARG)
             ___wmul (ARG)
               _abs (ARG)
           ___wmul (ARG)
             _abs (ARG)
           _abs (ARG)
       ___flmul (ARG)
         ___xxtofl (ARG)
           ___awdiv (ARG)
             ___wmul (ARG)
               _abs (ARG)
           ___wmul (ARG)
             _abs (ARG)
           _abs (ARG)
         _abs (ARG)
       ___xxtofl (ARG)
         ___awdiv (ARG)
           ___wmul (ARG)
             _abs (ARG)
         ___wmul (ARG)
           _abs (ARG)
         _abs (ARG)
     ___xxtofl
       ___awdiv (ARG)
         ___wmul (ARG)
           _abs (ARG)
       ___wmul (ARG)
         _abs (ARG)
       _abs (ARG)
   _ccp_init
   _steptakeL
   _steptakeR

 Address spaces:
Name               Size   Autos  Total    Cost      Usage
BIGRAM             E87      0       0      35        0.0%
EEDATA             400      0       0       0        0.0%
BITBANK13          100      0       0      31        0.0%
BANK13             100      0       0      32        0.0%
BITBANK12          100      0       0      29        0.0%
BANK12             100      0       0      30        0.0%
BITBANK11          100      0       0      27        0.0%
BANK11             100      0       0      28        0.0%
BITBANK10          100      0       0      25        0.0%
BANK10             100      0       0      26        0.0%
BITBANK9           100      0       0      23        0.0%
BANK9              100      0       0      24        0.0%
BITBANK8           100      0       0      21        0.0%
BANK8              100      0       0      22        0.0%
BITBANK7           100      0       0      19        0.0%
BANK7              100      0       0      20        0.0%
BITBANK6           100      0       0      17        0.0%
BANK6              100      0       0      18        0.0%
BITBANK5           100      0       0      15        0.0%
BANK5              100      0       0      16        0.0%
BITBANK4           100      0       0      13        0.0%
BANK4              100      0       0      14        0.0%
BITBANK3           100      0       0      11        0.0%
BANK3              100      0       0      12        0.0%
BITBANK2           100      0       0       9        0.0%
BANK2              100      0       0      10        0.0%
BITBANK1           100      0       0       7        0.0%
BANK1              100      0       0       8        0.0%
BITBANK0            A0      0       0       4        0.0%
BANK0               A0     5C      80       5       80.0%
BITBANK14           88      0       0      33        0.0%
BANK14              88      0       0      34        0.0%
BITCOMRAM           5F      0       0       0        0.0%
COMRAM              5F     5E      5E       1       98.9%
BITSFR_2             0      0       0     200        0.0%
SFR_2                0      0       0     200        0.0%
BITSFR_1             0      0       0     200        0.0%
SFR_1                0      0       0     200        0.0%
BITSFR               0      0       0     200        0.0%
SFR                  0      0       0     200        0.0%
STACK                0      0       0       2        0.0%
NULL                 0      0       0       0        0.0%
ABS                  0      0      DE       6        0.0%
DATA                 0      0      DE       3        0.0%
CODE                 0      0       0       0        0.0%


Microchip Technology PIC18 Macro Assembler V2.10 build 88905656 
Symbol Table                                                                                   Mon Mar 30 14:33:07 2020

           ___fldiv@aexp 0052             ___fldiv@bexp 0051                        _f 00C4  
           ___fldiv@sign 004A                       l94 E0B0                       _f2 00C0  
                     _f3 00BC             ___awdiv@sign 0010      ___wmul@multiplicand 0007  
            __CFG_LVP$ON 000000                      l130 E48E                      l114 DFCC  
                    l132 E684                      l133 E4EE                      l117 DB80  
                    l230 DB8A                      l150 F3E8                      l135 E4FE  
                    l232 DB98                      l128 E47E                      l233 DBBE  
                    l227 DAE8                      l171 F7AA                      l236 DB0E  
                    l501 E170                      l270 DD72                      l263 DD62  
                    l168 F6C4                      l185 F932                      l506 E1B6  
                    l187 FA0C                      l533 E2BE                      l480 DE24  
                    l467 DEE8                      l820 E87E                      l806 DC46  
                    l663 DCCE                      l911 DBF6                      l831 E93C  
                    l823 E842                      l656 DCBE                      l832 E92A  
                    l905 E40A                      l914 DBFE                      l818 EA1E  
                    l850 EAE4                      l764 F03A                      l860 ED40  
                    l781 F154                      l773 F30A                      l765 F028  
                    l829 E8C4                      l790 F224                      l766 EFEE  
                    l854 EE48                      l791 F212                      l857 ECDA  
                    l867 EE0A                      l859 ED52                      l891 E316  
                    l894 E472                      l898 E3AE                      _GIE 007F97  
                    _abs DBC0             ___awmod@sign 0073                      wreg 000FE8  
           ___flmul@aexp 0032             ___flmul@bexp 0033             ___flmul@sign 002D  
           ___flmul@temp 0038             ___flmul@prod 0034             ___fltol@exp1 006D  
                   ?_abs 0001                     l3000 DCF6                     l2210 EE68  
                   l3010 DD40                     l3002 DCFE                     l3100 DE1C  
                   l2300 F01C                     l2212 EE78                     l2220 EEA2  
                   l2204 EE4A                     l3020 DC12                     l3012 DD50  
                   l3004 DD0A                     l3030 DE40                     l3110 E120  
                   l2310 F06C                     l2302 F026                     l2230 EED2  
                   l2222 EEB2                     l2214 EE88                     l2206 EE58  
                   l3014 DD52                     l3006 DD18                     l3040 DE66  
                   l3032 DE44                     l3024 DE26                     l3120 E1AE  
                   l3112 E130                     l3104 E0B2                     l2400 F2F8  
                   l2320 F0A8                     l2312 F07C                     l2304 F048  
                   l2240 EF12                     l2232 EEE0                     l2224 EEB8  
                   l2216 EE98                     l2208 EE66                     l3016 DD5C  
                   l3008 DD22                     l3050 DE9C                     l3042 DE78  
                   l3034 DE52                     l3026 DE2A                     l3122 E1B4  
                   l3114 E13E                     l3106 E0E2                     l2402 F2FA  
                   l2330 F0EE                     l2322 F0B6                     l2314 F08A  
                   l2306 F058                     l2250 EF4C                     l2242 EF14  
                   l2234 EEE2                     l2226 EECA                     l2218 EE9A  
                   l3018 DC00                     l3130 DC66                     l2410 E6A0  
                   l3210 F458                     l3052 DEB2                     l3044 DE80  
                   l3060 DEC8                     l3036 DE5A                     l3028 DE38  
                   l3116 E150                     l3108 E0F2                     l2340 F16A  
                   l2332 F122                     l2324 F0B8                     l2316 F098  
                   l2260 EF60                     l2252 EF50                     l2236 EEF2  
                   l2244 EF1C                     l2228 EECC                     l3140 DCB8  
                   l3132 DC72                     l2500 E8D4                     l2420 E6D4  
                   l2412 E6A2                     l3300 F876                     l3220 F4D8  
                   l3212 F45E                     l3204 F3F2                     l3062 DED8  
                   l3054 DEBA                     l3046 DE88                     l3038 DE5E  
                   l3070 DD7A                     l3118 E15E                     l2350 F1A6  
                   l2342 F17A                     l2334 F124                     l2326 F0C2  
                   l2318 F0A4                     l2270 EF74                     l2262 EF64  
                   l2254 EF54                     l2246 EF2C                     l2238 EF02  
                   l3134 DC80                     l3126 DC48                     l2502 E8E2  
                   l2430 E706                     l2414 E6B2                     l2422 E6DC  
                   l2406 E686                     l3310 F8C4                     l3302 F88E  
                   l3230 F5D8                     l3222 F4EA                     l3214 F47A  
                   l3206 F408                     l3150 F31C                     l3142 F30C  
                   l3064 DEE0                     l3056 DEBC                     l3048 DE96  
                   l3080 DDAA                     l3072 DD88                     l2360 F1D2  
                   l2352 F1A8                     l2336 F134                     l2328 F0C8  
                   l2280 EF88                     l2272 EF78                     l2264 EF68  
                   l2256 EF58                     l2248 EF3E                     l3136 DC9E  
                   l3128 DC5E                     l2512 E94C                     l2520 E994  
                   l2504 E8E6                     l2440 E73A                     l2432 E708  
                   l2424 E6EC                     l2416 E6C2                     l2408 E692  
                   l2600 EB8E                     l3400 FE7E                     l3320 F8F2  
                   l3312 F8D0                     l3304 F89C                     l3240 F5F6  
                   l3224 F4F8                     l3216 F4A6                     l3208 F420  
                   l3160 F32C                     l3152 F320                     l3144 F314  
                   l3058 DEC2                     l3090 DDF0                     l3082 DDBC  
                   l3074 DD90                     l2370 F20A                     l2354 F1B6  
                   l2346 F18E                     l2362 F1D4                     l2338 F144  
                   l2290 EFE6                     l2274 EF7C                     l2266 EF6C  
                   l2258 EF5C                     l2282 EF8C                     l3138 DCAE  
                   l2530 E9FE                     l2522 E9AE                     l2514 E958  
                   l2506 E8F4                     l2450 E780                     l2434 E718  
                   l2442 E742                     l2426 E6F2                     l2418 E6D2  
                   l2610 EBE0                     l2602 EB9A                     l3410 FEA6  
                   l3322 F8F8                     l3306 F8A4                     l3250 F63C  
                   l3242 F5FA                     l3226 F59E                     l3218 F4C6  
                   l3330 F9EA                     l3170 F356                     l3162 F332  
                   l3154 F324                     l3146 F316                     l3092 DDF8  
                   l3084 DDC4                     l3076 DD94                     l3068 DD74  
                   l2380 F288                     l2356 F1BE                     l2348 F198  
                   l2364 F1E2                     l2292 EFFC                     l2284 EF90  
                   l2276 EF80                     l2268 EF70                     l2532 EA0C  
                   l2524 E9C4                     l2516 E966                     l2508 E922  
                   l2460 E7A8                     l2452 E784                     l2444 E752  
                   l2436 E728                     l2428 E6F8                     l2620 EC5E  
                   l2612 EBF0                     l2604 EBAA                     l2700 E25E  
                   l3404 FE88                     l3340 FA8E                     l3332 FA06  
                   l3316 F8DA                     l3324 F946                     l3252 F646  
                   l3236 F5E0                     l3244 F616                     l3228 F5BC  
                   l3180 F372                     l3164 F334                     l3156 F328  
                   l3148 F318                     l3094 DDFE                     l3086 DDCC  
                   l3078 DDA2                     l2390 F2CE                     l2374 F234  
                   l2382 F28A                     l2366 F1E6                     l2358 F1C2  
                   l2294 F008                     l2286 EFBA                     l2278 EF84  
                   l2534 EA12                     l2526 E9DE                     l2518 E990  
                   l2470 E7F6                     l2446 E768                     l2438 E738  
                   l2630 ECD8                     l2622 EC94                     l2614 EC0C  
                   l2606 EBB6                     l2550 EA3C                     l2710 E28E  
                   l3406 FE94                     l3414 FEF4                     l3350 FBB6  
                   l3342 FAAC                     l3334 FA0E                     l3318 F8E6  
                   l3326 F94A                     l3262 F67C                     l3270 F6FA  
                   l3246 F622                     l3238 F5EC                     l3182 F392  
                   l3166 F33C                     l3158 F32A                     l3088 DDDA  
                   l3096 DE04                     l2392 F2DC                     l2384 F29A  
                   l2376 F240                     l2368 F1F4                     l2296 F00C  
                   l2288 EFD6                     l2536 EA14                     l2528 E9FA  
                   l2480 E840                     l2472 E806                     l2464 E7BC  
                   l2448 E778                     l2456 E798                     l2640 ED38  
                   l2632 ECEA                     l2624 ECA2                     l2616 EC18  
                   l2608 EBC6                     l2560 EA82                     l2552 EA4C  
                   l2544 EA20                     l2712 E29E                     l2720 E2D2  
                   l3408 FEA0                     l3416 FEFA                     l3360 FBFA  
                   l3352 FBC2                     l3344 FAB4                     l3336 FA22  
                   l3328 F9E2                     l3264 F688                     l3256 F666  
                   l3248 F62E                     l3272 F700                     l3192 F3B6  
                   l3184 F39E                     l3176 F360                     l3168 F348  
                   l3098 DE14                     l2394 F2E2                     l2386 F2AA  
                   l2378 F24E                     l2298 F01A                     l2490 E88E  
                   l2482 E84C                     l2474 E80E                     l2466 E7D6  
                   l2458 E7A8                     l2650 EDA6                     l2634 ECF8  
                   l2626 ECC0                     l2618 EC34                     l2570 EAAE  
                   l2562 EA88                     l2554 EA5C                     l2546 EA2C  
                   l2714 E2AE                     l2706 E272                     l2730 E350  
                   l2722 E2E0                     l3370 FC28                     l3362 FC06  
                   l3354 FBD0                     l3346 FB8C                     l3338 FA62  
                   l3290 F80E                     l3266 F694                     l3258 F672  
                   l3274 F7BE                     l3194 F3C2                     l3186 F3AC  
                   l3178 F36C                     l2396 F2E4                     l2388 F2CA  
                   l2492 E8A4                     l2484 E86A                     l2476 E81E  
                   l2468 E7E6                     l2660 EE0E                     l2644 ED62  
                   l2652 EDAA                     l2636 ECFC                     l2628 ECCA  
                   l2580 EB04                     l2572 EABE                     l2564 EA8E  
                   l2556 EA6C                     l2548 EA3A                     l2708 E27E  
                   l2740 E3A4                     l2732 E358                     l2724 E326  
                   l3540 E03A                     l3380 FD54                     l3372 FC2E  
                   l3356 FBDA                     l3348 FBAA                     l3284 F7F4  
                   l3292 F82A                     l3276 F7DA                     l3268 F6C0  
                   l3196 F3C8                     l2398 F2EA                     l2494 E8AA  
                   l2486 E86C                     l2478 E832                     l2670 EE38  
                   l2662 EE1E                     l2654 EDC4                     l2646 ED6E  
                   l2638 ED0A                     l2590 EB44                     l2574 EACE  
                   l2566 EA9C                     l2558 EA72                     l2750 E41A  
                   l2742 E3E0                     l2734 E364                     l2726 E33C  
                   l2718 E2C2                     l2902 DF90                     l3542 E08A  
                   l3390 FE3A                     l3382 FDF0                     l3374 FC6E  
                   l3366 FC10                     l3294 F836                     l3286 F800  
                   l3278 F7EC                     l3198 F3E8                     l2496 E8B4  
                   l2488 E87C                     l2664 EE2C                     l2656 EDD8  
                   l2648 ED7C                     l2592 EB50                     l2584 EB18  
                   l2576 EAD4                     l2568 EA9E                     l2680 E1E4  
                   l2760 E462                     l2752 E41E                     l2744 E3EC  
                   l2736 E396                     l2920 DB50                     l3544 DF56  
                   l2840 DEEA                     l3392 FE48                     l3368 FC1C  
                   l3376 FC84                     l3384 FE06                     l3296 F842  
                   l3288 F80A                     l2498 E8C2                     l2666 EE2E  
                   l2658 EDF2                     l2594 EB68                     l2586 EB24  
                   l2578 EAF4                     l2690 E232                     l2682 E20E  
                   l2674 E1B8                     l2754 E442                     l2746 E3FA  
                   l2738 E398                     l2930 DB78                     l2922 DB52  
                   l3546 DFA6                     l2850 DF1C                     l2826 E074  
                   l2770 DFE8                     l3394 FE52                     l3386 FE22  
                   l3378 FC8A                     l3298 F85A                     l2668 EE34  
                   l2596 EB74                     l2588 EB2E                     l2684 E210  
                   l2676 E1D0                     l2756 E452                     l2748 E418  
                   l2932 DB7A                     l2924 DB54                     l2916 DB46  
                   l2844 DF00                     l2780 E008                     l2772 DFF6  
                   l2764 DFCE                     l3388 FE2E                     l2598 EB80  
                   l2686 E220                     l2758 E460                     l2934 DB7C  
                   l2926 DB5E                     l2918 DB4E                     l2862 DF2C  
                   l2846 DF04                     l2870 DF40                     l2774 E000  
                   l3398 FE72                     l2696 E24A                     l2688 E224  
                   l2960 E5EC                     l2952 E500                     l2944 E490  
                   l2936 DB7E                     l2928 DB62                     l2856 DF24  
                   l2848 DF12                     l2872 DF7C                     l2792 E018  
                   l2768 DFE4                     l2698 E254                     l2962 E634  
                   l2954 E50E                     l2946 E49E                     l2938 E474  
                   l2786 E010                     l2794 E024                     l2980 DB88  
                   l2972 DAE0                     l2964 E63C                     l2956 E52C  
                   l2948 E4B4                     l2868 DF34                     l2796 E060  
                   l2990 DAEA                     l2982 DB9A                     l2974 DAE2  
                   l2966 E642                     l2958 E544                     l2992 DB06  
                   l2976 DB82                     l2968 E65E                     l2986 DBC0  
                   l2978 DB86                     l2996 DCD0                     l2988 DBDA  
                   l2998 DCE0                     u2000 F1F4                     u2001 F1F0  
                   u2010 F20A                     u2011 F206                     u2100 F2F8  
                   u2020 F220                     u2101 F2F4                     u2021 F21C  
                   u2030 F234                     u2110 E6A0                     u2031 F230  
                   u2111 E69C                     u3000 E15E                     u2040 F24E  
                   u2200 E840                     u2120 E6B2                     u3001 E15A  
                   u2041 F24A                     u2201 E83C                     u2121 E6AE  
                   u3010 E1AE                     u2050 F288                     u2210 E86A  
                   u2130 E6C2                     u3011 E1AA                     u2051 F284  
                   u2211 E866                     u2131 E6BE                     u2060 F29A  
                   u3020 DC5E                     u2300 E966                     u2220 E88E  
                   u2140 E706                     u3100 F47A                     u2061 F296  
                   u3021 DC5A                     u2301 E962                     u2221 E88A  
                   u2141 E702                     u3101 F476                     u2070 F2AA  
                   u3030 DC80                     u2310 E9AE                     u2230 E8A4  
                   u2150 E718                     u3110 F4A6                     u2071 F2A6  
                   u3031 DC7C                     u2311 E9AA                     u2231 E8A0  
                   u2151 E714                     u3111 F4A2                     u2080 F2CA  
                   u3040 DC9E                     u2320 E9DE                     u2240 E8C2  
                   u2160 E728                     u2400 EAF4                     u3200 F7AA  
                   u3120 F4C6                     u2081 F2C6                     u3041 DC9A  
                   u2321 E9DA                     u2241 E8BE                     u2161 E724  
                   u2401 EAF0                     u3201 F7A6                     u3121 F4C2  
                   u2090 F2DC                     u2330 EA0C                     u2250 E8E2  
                   u2170 E768                     u2410 EB04                     u3210 F7DA  
                   u3130 F4D8                     u3050 F356                     u2091 F2D8  
                   u2331 EA08                     u2251 E8DE                     u2171 E764  
                   u2411 EB00                     u3211 F7D6                     u3131 F4D4  
                   u3051 F352                     u2260 E8F4                     u2180 E7A8  
                   u2500 EDC4                     u2420 EC7E                     u2340 EA3A  
                   u3300 FA06                     u3220 F7EC                     u3140 F5BC  
                   u3060 F38E                     u2261 E8F0                     u2181 E7A4  
                   u2501 EDC0                     u2341 EA36                     u3301 FA02  
                   u3221 F7E8                     u3141 F5B8                     u3061 F38A  
                   u2270 E922                     u2190 E81E                     u2510 EDF2  
                   u2430 ECD8                     u2350 EA4C                     u3310 FA8E  
                   u3230 F82A                     u3150 F5D8                     u3070 F3AC  
                   u2271 E91E                     u2191 E81A                     u2511 EDEE  
                   u2431 ECD4                     u2351 EA48                     u3311 FA8A  
                   u3231 F826                     u3151 F5D4                     u3071 F3A8  
                   u1800 EF4C                     u1720 EE66                     u2280 E938  
                   u2520 EE2C                     u2440 ECF8                     u2360 EA5C  
                   u2600 E2D2                     u3400 FE6E                     u3320 FAAC  
                   u3240 F85A                     u3160 F616                     u3080 F3E4  
                   u1801 EF48                     u1721 EE62                     u2281 E934  
                   u2521 EE28                     u2441 ECF4                     u2425 EC74  
                   u2361 EA58                     u2601 E2CE                     u3401 FE6A  
                   u3321 FAA8                     u3241 F856                     u3161 F612  
                   u3081 F3E0                     u1810 EFBA                     u1730 EE78  
                   u2290 E94C                     u2450 ED0A                     u2370 EA9C  
                   u2530 E1D0                     u2610 E2E0                     u3410 FEF0  
                   u3330 FBAA                     u3250 F876                     u3170 F63C  
                   u3090 F408                     u1811 EFB6                     u1731 EE74  
                   u2291 E948                     u2451 ED06                     u2371 EA98  
                   u2531 E1CC                     u2611 E2DC                     u3411 FEEC  
                   u3331 FBA6                     u3251 F872                     u3171 F638  
                   u3091 F404                     u1900 F098                     u1820 EFD2  
                   u1740 EE88                     u2460 ED38                     u2380 EAAE  
                   u2540 E204                     u2620 E33C                     u2700 DFE0  
                   u3420 FFF8                     u3340 FBD0                     u3260 F89C  
                   u3180 F662                     u1901 F094                     u1821 EFCC  
                   u1741 EE84                     u2461 ED34                     u2381 EAAA  
                   u2621 E338                     u2701 DFDC                     u3421 FFF4  
                   u3341 FBCC                     u3261 F898                     u3181 F65E  
                   u1910 F0B6                     u1830 EFD4                     u1750 EECA  
                   u2470 ED4E                     u2390 EABE                     u2550 E232  
                   u2630 E392                     u2710 E074                     u3350 FBF6  
                   u3270 F8C0                     u3190 F6F6                     u1911 F0B2  
                   u1751 EEC6                     u2471 ED4A                     u2391 EABA  
                   u2551 E22E                     u2631 E38E                     u2711 E070  
                   u3351 FBF2                     u3271 F8BC                     u3191 F6F2  
                   u1920 F0EE                     u1840 EFFC                     u1760 EEE0  
                   u2480 ED62                     u2560 E246                     u2640 E3DC  
                   u2720 DEFC                     u3360 FC6E                     u3280 F932  
                   u1921 F0EA                     u1841 EFF8                     u1761 EEDC  
                   u2481 ED5E                     u2561 E242                     u2545 E1FA  
                   u2641 E3D8                     u2721 DEF8                     u3361 FC6A  
                   u3281 F92E                     u1930 F134                     u1850 F01A  
                   u1770 EEF2                     u2810 DBDA                     u2490 ED7C  
                   u2570 E26E                     u2650 E3FA                     u2730 DF90  
                   u3370 FDF0                     u3290 F9DE                     u1931 F130  
                   u1851 F016                     u1771 EEEE                     u2811 DBD6  
                   u2491 ED78                     u2571 E26A                     u2651 E3F6  
                   u2731 DF8C                     u3371 FDEC                     u3291 F9DA  
                   u2900 DED8                     u1940 F16A                     u1860 F03A  
                   u1780 EF02                     u2820 DCF6                     u2580 E28E  
                   u2660 E40A                     u2740 E48E                     u3380 FE22  
                   u2901 DED4                     u1941 F166                     u1861 F036  
                   u1781 EEFE                     u2821 DCF2                     u2805 DBA6  
                   u2581 E28A                     u2661 E406                     u2741 E48A  
                   u3381 FE1E                     u3437 F4E0                     u2910 DD88  
                   u1950 F17A                     u1870 F048                     u1790 EF3E  
                   u2830 DD18                     u2590 E29E                     u2670 E418  
                   u2750 E4B4                     u3390 FE48                     u2911 DD84  
                   u1951 F176                     u1871 F044                     u1791 EF3A  
                   u2831 DD14                     u2591 E29A                     u2671 E414  
                   u2751 E4B0                     u3447 DFEE                     u3391 FE44  
                   u2920 DDA2                     u1960 F1A6                     u1880 F058  
                   u2840 DD40                     u2680 E452                     u2760 E4FE  
                   u2921 DD9E                     u1961 F1A2                     u1881 F054  
                   u2841 DD3C                     u2681 E44E                     u2761 E4FA  
                   u3457 DF0A                     u2850 DE38                     u2930 DDBC  
                   u1970 F1B6                     u1890 F08A                     u2690 E460  
                   u2770 E52C                     u2851 DE34                     u2931 DDB8  
                   u1971 F1B2                     u1891 F086                     u2691 E45C  
                   u2771 E528                     _PEIE 007F96                     u2860 DE52  
                   u2940 DDDA                     u1980 F1D2                     u2780 E65E  
                   u2861 DE4E                     u2941 DDD6                     u1981 F1CE  
                   u2781 E65A                     u2870 DE78                     u2950 DDF0  
                   u1990 F1E2                     u2790 DB98                     u2871 DE74  
                   u2951 DDEC                     u1991 F1DE                     u2791 DB94  
                   u2880 DE96                     u2960 DE14                     u2881 DE92  
                   u2961 DE10                     u2890 DEB2                     u2970 E0E2  
                   u2891 DEAE                     u2971 E0DE                     u2980 E120  
                   u2981 E11C                     u2990 E13E                     u2991 E13A  
                   _TMR1 000FCD                     abs@a 0001                     _main F30C  
                   _freq 00DA                     _temp 00D6                     _test 00D8  
                   fsr1l 000FE1                     _step 00DE                     prodh 000FF4  
                   prodl 000FF3                     start 0000          ___fldiv@new_exp 004B  
           ___param_bank 000000                    ??_abs 0003            ___fltol@sign1 006C  
        __end_of___fladd F30C                    ?_main 0001          __end_of___fldiv EA20  
        __end_of_adcNum0 DBC0          __end_of___awdiv DEEA                    _ADRES 000F63  
                  _CCPR1 000FAA            __CFG_WDTE$OFF 000000          __end_of___awmod DE26  
        __end_of___flmul EE4A          __end_of___flsub DC48          __end_of___fltol E2C0  
        __end_of___lldiv DD74          ___awdiv@divisor 000D          __end_of___llmod DCD0  
        ___awdiv@counter 000F          __end_of_ccpNum0 E686                    _PORTB 000F8E  
                  _PORTD 000F90                    _TRISB 000F89                    _TRISD 000F8B  
                  _check 00D4                    _stepf 00DC                    main@n 00BA  
                  main@t 00AC                    main@w 00B0                    tablat 000FF5  
                  nvmcon 000F81                    status 000FD8          __initialization DB10  
           __end_of_main 0000             _ccpNum0$1120 0076                   ??_main 007C  
          __activetblptr 000003                   _ADCON0 000F60                   _CCP1IE 007640  
       ___llmod@dividend 000E         ___awdiv@dividend 000B                   _ANSELA 000F11  
                 _ANSELC 000F21         __end_of_adc_init DAEA                   _TMR1IF 007670  
                 _TMR1ON 007E78         __end_of___xxtofl E474         __end_of_ccp_init DB82  
                 ___flge E0B2                ??___fladd 005B                   ___wmul DAEA  
              ??___fldiv 0042                ??_adcNum0 0005                ??___awdiv 000F  
              ??___awmod 005F                ??___flmul 0029                ??___flsub 005F  
              ??___fltol 0068                ??___lldiv 0009                ??___llmod 0016  
              ??_ccpNum0 005F                   clear_0 DB3A         ___awdiv@quotient 0011  
        ___awmod@divisor 0070                   _value0 00D0          ___awmod@counter 0072  
                 tblptrh 000FF7                   tblptrl 000FF6                   tblptru 000FF8  
             ___flge@ff1 006C               ___flge@ff2 0070             ___xxtofl@arg 001D  
           ___xxtofl@exp 001C             ___xxtofl@val 0013               __accesstop 0060  
__end_of__initialization DB40            ___rparam_used 000001               ___fltol@f1 0064  
         __pcstackCOMRAM 0001             __pidataBANK0 DADC             steptakeL@dir 0001  
           steptakeR@dir 0001               __pbssBANK0 00BC                  ?___flge 006C  
                ?___wmul 0005                  _CCP1PPS 000EAF                ?_adc_init 0001  
                _T1CKPS0 007E7C                  _T1CKPS1 007E7D                ?___xxtofl 0013  
              ?_ccp_init 0001       __size_of_steptakeL 00E4       __size_of_steptakeR 00E4  
                __Hparam 0000                  __Lparam 0000          __size_of___flge 0106  
                ___fladd EE4A                  ___fldiv E686                  _adcNum0 DB82  
                ___awdiv DE26                  ___awmod DD74                  ___flmul EA20  
                ___flsub DC00                  ___fltol E1B8                  ___lldiv DCD0  
        __size_of___wmul 0026                  ___llmod DC48                  _ccpNum0 E474  
                __pcinit DB10                  __ramtop 0F00               ??_adc_init 0001  
                __ptext0 F30C                  __ptext1 DFCE                  __ptext2 DEEA  
                __ptext3 DB46                  __ptext4 E474                  __ptext5 E2C0  
                __ptext6 E1B8                  __ptext7 EA20                  __ptext8 E686  
                __ptext9 DAE0                _T1CONbits 000FCF             __size_of_abs 0040  
             ??___xxtofl 0017               ??_ccp_init 0001         ___awmod@dividend 006E  
   end_of_initialization DB40          ___lldiv@divisor 0005          ___lldiv@counter 000D  
                postdec1 000FE5                  postinc0 000FEE        __end_of_steptakeL DFCE  
      __end_of_steptakeR E0B2                _PORTAbits 000F8D              ___fladd@grs 0063  
          ___xxtofl@sign 001B                _TRISAbits 000F88                _TRISCbits 000F8A  
            ___fldiv@grs 004D              ___fldiv@rem 0046              ___flmul@grs 002E  
            _CCP1CONbits 000FAC           __end_of___flge E1B8           __end_of___wmul DB10  
    start_initialization DB10              __end_of_abs DC00          ___llmod@divisor 0012  
        ___llmod@counter 0016                 ??___flge 0074                 ??___wmul 0009  
            __pdataBANK0 00DC                ___fladd@a 0057                ___fladd@b 0053  
              ___fldiv@a 003E                ___fldiv@b 003A        __size_of_adc_init 000A  
              ___flmul@a 0025                ___flmul@b 0021                ___flsub@a 0068  
              ___flsub@b 0064            __pcstackBANK0 0060        __size_of___xxtofl 01B4  
      __size_of_ccp_init 003C                _main$1121 0090                _main$1122 0094  
               ?___fladd 0053                 ?___fldiv 003A                 ?_adcNum0 0001  
               ?___awdiv 000B                 ?___awmod 006E                 ?___flmul 0021  
               ?___flsub 0064                 ?___fltol 0064                 ?___lldiv 0001  
               ?___llmod 000E                 ?_ccpNum0 006E           ___wmul@product 0009  
               _LATAbits 000F83                 _PIR6bits 000ED0               _ADCON0bits 000F60  
      ___wmul@multiplier 0005                main@t_402 0098                main@t_403 00B2  
              main@t_420 00A2                main@t_404 009A                main@t_421 00A4  
              main@t_405 009C                main@t_422 00B8                main@t_406 00B4  
              main@t_423 00A6                main@t_407 009E                main@t_418 00A0  
              main@t_419 00B6                main@t_398 00AE                _steptakeL DEEA  
              _steptakeR DFCE                main@dist2 00AA                copy_data0 DB28  
               __Hrparam 0000                 __Lrparam 0000         __size_of___fladd 04C2  
       __size_of___fldiv 039A         __size_of_adcNum0 003E         __size_of___awdiv 00C4  
       __size_of___awmod 00B2         __size_of___flmul 042A         __size_of___flsub 0048  
       __size_of___fltol 0108         __size_of___lldiv 00A4         __size_of___llmod 0088  
       __size_of_ccpNum0 0212                 _adc_init DAE0               ?_steptakeL 0001  
             ?_steptakeR 0001                 ___xxtofl E2C0                 _ccp_init DB46  
               __ptext10 DB82                 __ptext11 DBC0                 __ptext12 DAEA  
               __ptext13 DC48                 __ptext14 DCD0                 __ptext15 DC00  
               __ptext16 EE4A                 __ptext17 E0B2                 __ptext18 DD74  
               __ptext19 DE26                 ccpNum0@q 007A            __size_of_main 0CF4  
               _currfreq 00C8                 _currfuel 00CC                 main@dist 00A8  
            _TMR1CLKbits 000FD2         ___lldiv@dividend 0001            ccpNum0@period 0072  
            ??_steptakeL 0003              ??_steptakeR 0003         ___lldiv@quotient 0009  
          ___fladd@signs 0060             ___fladd@aexp 0061             ___fladd@bexp 0062  
